
min_mm.o:     file format elf32-i386


Disassembly of section .text:

00000000 <fmt_fun>:
		uint16_t free_ct[4];
		struct pmue entries[4];
};

/***************   UTILITY FUNCTIONS   ****************************************/
void fmt_fun(char* p, uint64_t v) {
       0:	55                   	push   ebp
       1:	89 e5                	mov    ebp,esp
       3:	83 ec 18             	sub    esp,0x18
       6:	8b 45 0c             	mov    eax,DWORD PTR [ebp+0xc]
       9:	89 45 e8             	mov    DWORD PTR [ebp-0x18],eax
       c:	8b 45 10             	mov    eax,DWORD PTR [ebp+0x10]
       f:	89 45 ec             	mov    DWORD PTR [ebp-0x14],eax
		for (int i = 0; i < 16; i++) {
      12:	c7 45 fc 00 00 00 00 	mov    DWORD PTR [ebp-0x4],0x0
      19:	eb 52                	jmp    6d <fmt_fun+0x6d>
				char c = (v >> 60);
      1b:	8b 45 e8             	mov    eax,DWORD PTR [ebp-0x18]
      1e:	8b 55 ec             	mov    edx,DWORD PTR [ebp-0x14]
      21:	89 d0                	mov    eax,edx
      23:	31 d2                	xor    edx,edx
      25:	c1 e8 1c             	shr    eax,0x1c
      28:	88 45 fb             	mov    BYTE PTR [ebp-0x5],al
				if (c > 9)
      2b:	80 7d fb 09          	cmp    BYTE PTR [ebp-0x5],0x9
      2f:	7e 0c                	jle    3d <fmt_fun+0x3d>
						c = 'a' + (c - 10);
      31:	0f b6 45 fb          	movzx  eax,BYTE PTR [ebp-0x5]
      35:	83 c0 57             	add    eax,0x57
      38:	88 45 fb             	mov    BYTE PTR [ebp-0x5],al
      3b:	eb 0a                	jmp    47 <fmt_fun+0x47>
				else
						c = '0' + c;
      3d:	0f b6 45 fb          	movzx  eax,BYTE PTR [ebp-0x5]
      41:	83 c0 30             	add    eax,0x30
      44:	88 45 fb             	mov    BYTE PTR [ebp-0x5],al
				*p++ = c;
      47:	8b 45 08             	mov    eax,DWORD PTR [ebp+0x8]
      4a:	8d 50 01             	lea    edx,[eax+0x1]
      4d:	89 55 08             	mov    DWORD PTR [ebp+0x8],edx
      50:	0f b6 55 fb          	movzx  edx,BYTE PTR [ebp-0x5]
      54:	88 10                	mov    BYTE PTR [eax],dl
				v <<= 4;
      56:	8b 45 e8             	mov    eax,DWORD PTR [ebp-0x18]
      59:	8b 55 ec             	mov    edx,DWORD PTR [ebp-0x14]
      5c:	0f a4 c2 04          	shld   edx,eax,0x4
      60:	c1 e0 04             	shl    eax,0x4
      63:	89 45 e8             	mov    DWORD PTR [ebp-0x18],eax
      66:	89 55 ec             	mov    DWORD PTR [ebp-0x14],edx
		for (int i = 0; i < 16; i++) {
      69:	83 45 fc 01          	add    DWORD PTR [ebp-0x4],0x1
      6d:	83 7d fc 0f          	cmp    DWORD PTR [ebp-0x4],0xf
      71:	7e a8                	jle    1b <fmt_fun+0x1b>
		}
}
      73:	90                   	nop
      74:	90                   	nop
      75:	c9                   	leave
      76:	c3                   	ret

00000077 <fmt_fun2>:
void fmt_fun2(char* p, uint32_t v) {
      77:	55                   	push   ebp
      78:	89 e5                	mov    ebp,esp
      7a:	83 ec 10             	sub    esp,0x10
		for (int i = 0; i < 8; i++) {
      7d:	c7 45 fc 00 00 00 00 	mov    DWORD PTR [ebp-0x4],0x0
      84:	eb 3c                	jmp    c2 <fmt_fun2+0x4b>
				char c = (v >> 28);
      86:	8b 45 0c             	mov    eax,DWORD PTR [ebp+0xc]
      89:	c1 e8 1c             	shr    eax,0x1c
      8c:	88 45 fb             	mov    BYTE PTR [ebp-0x5],al
				if (c > 9)
      8f:	80 7d fb 09          	cmp    BYTE PTR [ebp-0x5],0x9
      93:	7e 0c                	jle    a1 <fmt_fun2+0x2a>
						c = 'a' + (c - 10);
      95:	0f b6 45 fb          	movzx  eax,BYTE PTR [ebp-0x5]
      99:	83 c0 57             	add    eax,0x57
      9c:	88 45 fb             	mov    BYTE PTR [ebp-0x5],al
      9f:	eb 0a                	jmp    ab <fmt_fun2+0x34>
				else
						c = '0' + c;
      a1:	0f b6 45 fb          	movzx  eax,BYTE PTR [ebp-0x5]
      a5:	83 c0 30             	add    eax,0x30
      a8:	88 45 fb             	mov    BYTE PTR [ebp-0x5],al
				*p++ = c;
      ab:	8b 45 08             	mov    eax,DWORD PTR [ebp+0x8]
      ae:	8d 50 01             	lea    edx,[eax+0x1]
      b1:	89 55 08             	mov    DWORD PTR [ebp+0x8],edx
      b4:	0f b6 55 fb          	movzx  edx,BYTE PTR [ebp-0x5]
      b8:	88 10                	mov    BYTE PTR [eax],dl
				v <<= 4;
      ba:	c1 65 0c 04          	shl    DWORD PTR [ebp+0xc],0x4
		for (int i = 0; i < 8; i++) {
      be:	83 45 fc 01          	add    DWORD PTR [ebp-0x4],0x1
      c2:	83 7d fc 07          	cmp    DWORD PTR [ebp-0x4],0x7
      c6:	7e be                	jle    86 <fmt_fun2+0xf>
		}
}
      c8:	90                   	nop
      c9:	90                   	nop
      ca:	c9                   	leave
      cb:	c3                   	ret

000000cc <put32>:

void put32(uint32_t num)
{
      cc:	55                   	push   ebp
      cd:	89 e5                	mov    ebp,esp
      cf:	83 ec 18             	sub    esp,0x18
		char buf[] = "0x01234567";
      d2:	c7 45 ed 30 78 30 31 	mov    DWORD PTR [ebp-0x13],0x31307830
      d9:	c7 45 f1 32 33 34 35 	mov    DWORD PTR [ebp-0xf],0x35343332
      e0:	c7 45 f4 35 36 37 00 	mov    DWORD PTR [ebp-0xc],0x373635
		fmt_fun2(buf + 2, num);
      e7:	8d 45 ed             	lea    eax,[ebp-0x13]
      ea:	83 c0 02             	add    eax,0x2
      ed:	ff 75 08             	push   DWORD PTR [ebp+0x8]
      f0:	50                   	push   eax
      f1:	e8 fc ff ff ff       	call   f2 <put32+0x26>
      f6:	83 c4 08             	add    esp,0x8
		putstr(buf);
      f9:	83 ec 0c             	sub    esp,0xc
      fc:	8d 45 ed             	lea    eax,[ebp-0x13]
      ff:	50                   	push   eax
     100:	e8 fc ff ff ff       	call   101 <put32+0x35>
     105:	83 c4 10             	add    esp,0x10
}
     108:	90                   	nop
     109:	c9                   	leave
     10a:	c3                   	ret

0000010b <nput32>:
void nput32(uint32_t num, int min_cc)
{
     10b:	55                   	push   ebp
     10c:	89 e5                	mov    ebp,esp
     10e:	83 ec 28             	sub    esp,0x28
		int len;
		char buf[] = "----------";
     111:	c7 45 e1 2d 2d 2d 2d 	mov    DWORD PTR [ebp-0x1f],0x2d2d2d2d
     118:	c7 45 e5 2d 2d 2d 2d 	mov    DWORD PTR [ebp-0x1b],0x2d2d2d2d
     11f:	c7 45 e8 2d 2d 2d 00 	mov    DWORD PTR [ebp-0x18],0x2d2d2d
		char* c = &buf[9];
     126:	8d 45 e1             	lea    eax,[ebp-0x1f]
     129:	83 c0 09             	add    eax,0x9
     12c:	89 45 f4             	mov    DWORD PTR [ebp-0xc],eax
		while (c >= buf) {
     12f:	eb 4f                	jmp    180 <nput32+0x75>
				uint8_t rem = num % 10;
     131:	8b 4d 08             	mov    ecx,DWORD PTR [ebp+0x8]
     134:	ba cd cc cc cc       	mov    edx,0xcccccccd
     139:	89 c8                	mov    eax,ecx
     13b:	f7 e2                	mul    edx
     13d:	c1 ea 03             	shr    edx,0x3
     140:	89 d0                	mov    eax,edx
     142:	c1 e0 02             	shl    eax,0x2
     145:	01 d0                	add    eax,edx
     147:	01 c0                	add    eax,eax
     149:	29 c1                	sub    ecx,eax
     14b:	89 ca                	mov    edx,ecx
     14d:	88 55 f3             	mov    BYTE PTR [ebp-0xd],dl
				num /= 10;
     150:	8b 45 08             	mov    eax,DWORD PTR [ebp+0x8]
     153:	ba cd cc cc cc       	mov    edx,0xcccccccd
     158:	f7 e2                	mul    edx
     15a:	89 d0                	mov    eax,edx
     15c:	c1 e8 03             	shr    eax,0x3
     15f:	89 45 08             	mov    DWORD PTR [ebp+0x8],eax
				*c = '0' + rem;
     162:	0f b6 45 f3          	movzx  eax,BYTE PTR [ebp-0xd]
     166:	83 c0 30             	add    eax,0x30
     169:	89 c2                	mov    edx,eax
     16b:	8b 45 f4             	mov    eax,DWORD PTR [ebp-0xc]
     16e:	88 10                	mov    BYTE PTR [eax],dl
				c--;
     170:	83 6d f4 01          	sub    DWORD PTR [ebp-0xc],0x1
				if (!num) {
     174:	83 7d 08 00          	cmp    DWORD PTR [ebp+0x8],0x0
     178:	75 06                	jne    180 <nput32+0x75>
						c++;
     17a:	83 45 f4 01          	add    DWORD PTR [ebp-0xc],0x1
						break;
     17e:	eb 08                	jmp    188 <nput32+0x7d>
		while (c >= buf) {
     180:	8d 45 e1             	lea    eax,[ebp-0x1f]
     183:	39 45 f4             	cmp    DWORD PTR [ebp-0xc],eax
     186:	73 a9                	jae    131 <nput32+0x26>
				}
		}
		len = 10 - (c - buf); /* c-buf=-1 */
     188:	8d 45 e1             	lea    eax,[ebp-0x1f]
     18b:	8b 55 f4             	mov    edx,DWORD PTR [ebp-0xc]
     18e:	29 c2                	sub    edx,eax
     190:	b8 0a 00 00 00       	mov    eax,0xa
     195:	29 d0                	sub    eax,edx
     197:	89 45 ec             	mov    DWORD PTR [ebp-0x14],eax
		if (min_cc > 0) {
     19a:	83 7d 0c 00          	cmp    DWORD PTR [ebp+0xc],0x0
     19e:	7e 20                	jle    1c0 <nput32+0xb5>
				while (min_cc-- > len)
     1a0:	eb 10                	jmp    1b2 <nput32+0xa7>
						putstr(" ");
     1a2:	83 ec 0c             	sub    esp,0xc
     1a5:	68 0c 00 00 00       	push   0xc
     1aa:	e8 fc ff ff ff       	call   1ab <nput32+0xa0>
     1af:	83 c4 10             	add    esp,0x10
				while (min_cc-- > len)
     1b2:	8b 45 0c             	mov    eax,DWORD PTR [ebp+0xc]
     1b5:	8d 50 ff             	lea    edx,[eax-0x1]
     1b8:	89 55 0c             	mov    DWORD PTR [ebp+0xc],edx
     1bb:	39 45 ec             	cmp    DWORD PTR [ebp-0x14],eax
     1be:	7c e2                	jl     1a2 <nput32+0x97>
		}
		putstr(c);
     1c0:	83 ec 0c             	sub    esp,0xc
     1c3:	ff 75 f4             	push   DWORD PTR [ebp-0xc]
     1c6:	e8 fc ff ff ff       	call   1c7 <nput32+0xbc>
     1cb:	83 c4 10             	add    esp,0x10
		if (min_cc < 0) {
     1ce:	83 7d 0c 00          	cmp    DWORD PTR [ebp+0xc],0x0
     1d2:	79 24                	jns    1f8 <nput32+0xed>
				while (len + min_cc++ < 0)
     1d4:	eb 10                	jmp    1e6 <nput32+0xdb>
						putstr(" ");
     1d6:	83 ec 0c             	sub    esp,0xc
     1d9:	68 0c 00 00 00       	push   0xc
     1de:	e8 fc ff ff ff       	call   1df <nput32+0xd4>
     1e3:	83 c4 10             	add    esp,0x10
				while (len + min_cc++ < 0)
     1e6:	8b 45 0c             	mov    eax,DWORD PTR [ebp+0xc]
     1e9:	8d 50 01             	lea    edx,[eax+0x1]
     1ec:	89 55 0c             	mov    DWORD PTR [ebp+0xc],edx
     1ef:	8b 55 ec             	mov    edx,DWORD PTR [ebp-0x14]
     1f2:	01 d0                	add    eax,edx
     1f4:	85 c0                	test   eax,eax
     1f6:	78 de                	js     1d6 <nput32+0xcb>
		}
}
     1f8:	90                   	nop
     1f9:	c9                   	leave
     1fa:	c3                   	ret

000001fb <put64>:
void put64(uint64_t num)
{
     1fb:	55                   	push   ebp
     1fc:	89 e5                	mov    ebp,esp
     1fe:	83 ec 38             	sub    esp,0x38
     201:	8b 45 08             	mov    eax,DWORD PTR [ebp+0x8]
     204:	89 45 d0             	mov    DWORD PTR [ebp-0x30],eax
     207:	8b 45 0c             	mov    eax,DWORD PTR [ebp+0xc]
     20a:	89 45 d4             	mov    DWORD PTR [ebp-0x2c],eax
		char buf[] = "0x0123456789abcdef";
     20d:	c7 45 e5 30 78 30 31 	mov    DWORD PTR [ebp-0x1b],0x31307830
     214:	c7 45 e9 32 33 34 35 	mov    DWORD PTR [ebp-0x17],0x35343332
     21b:	c7 45 ed 36 37 38 39 	mov    DWORD PTR [ebp-0x13],0x39383736
     222:	c7 45 f1 61 62 63 64 	mov    DWORD PTR [ebp-0xf],0x64636261
     229:	c7 45 f4 64 65 66 00 	mov    DWORD PTR [ebp-0xc],0x666564
		fmt_fun(buf + 2, num);
     230:	8d 45 e5             	lea    eax,[ebp-0x1b]
     233:	83 c0 02             	add    eax,0x2
     236:	83 ec 04             	sub    esp,0x4
     239:	ff 75 d4             	push   DWORD PTR [ebp-0x2c]
     23c:	ff 75 d0             	push   DWORD PTR [ebp-0x30]
     23f:	50                   	push   eax
     240:	e8 fc ff ff ff       	call   241 <put64+0x46>
     245:	83 c4 10             	add    esp,0x10
		putstr(buf);
     248:	83 ec 0c             	sub    esp,0xc
     24b:	8d 45 e5             	lea    eax,[ebp-0x1b]
     24e:	50                   	push   eax
     24f:	e8 fc ff ff ff       	call   250 <put64+0x55>
     254:	83 c4 10             	add    esp,0x10
}
     257:	90                   	nop
     258:	c9                   	leave
     259:	c3                   	ret

0000025a <bzero>:

void bzero(void* ptr, size_t s)
{
     25a:	55                   	push   ebp
     25b:	89 e5                	mov    ebp,esp
     25d:	53                   	push   ebx
		register uint8_t* p = (uint8_t*)ptr;
     25e:	8b 5d 08             	mov    ebx,DWORD PTR [ebp+0x8]
		if (s >= 8) {
     261:	83 7d 0c 07          	cmp    DWORD PTR [ebp+0xc],0x7
     265:	76 36                	jbe    29d <bzero+0x43>
				/* first align to dword boundary */
				while ((size_t)p % 4) {
     267:	eb 0c                	jmp    275 <bzero+0x1b>
						*p++ = 0;
     269:	89 d8                	mov    eax,ebx
     26b:	8d 58 01             	lea    ebx,[eax+0x1]
     26e:	c6 00 00             	mov    BYTE PTR [eax],0x0
						s--;
     271:	83 6d 0c 01          	sub    DWORD PTR [ebp+0xc],0x1
				while ((size_t)p % 4) {
     275:	89 d8                	mov    eax,ebx
     277:	83 e0 03             	and    eax,0x3
     27a:	85 c0                	test   eax,eax
     27c:	75 eb                	jne    269 <bzero+0xf>
				}
				/* now clear uint32_t-sized blocks */
				while (s >= 4) {
     27e:	eb 0d                	jmp    28d <bzero+0x33>
						*(uint32_t*)p = 0;
     280:	c7 03 00 00 00 00    	mov    DWORD PTR [ebx],0x0
						p += 4;
     286:	83 c3 04             	add    ebx,0x4
						s -= 4;
     289:	83 6d 0c 04          	sub    DWORD PTR [ebp+0xc],0x4
				while (s >= 4) {
     28d:	83 7d 0c 03          	cmp    DWORD PTR [ebp+0xc],0x3
     291:	77 ed                	ja     280 <bzero+0x26>
				}
		}
		/* set remaining memory */
		while (s--)
     293:	eb 08                	jmp    29d <bzero+0x43>
				*p++ = 0;
     295:	89 d8                	mov    eax,ebx
     297:	8d 58 01             	lea    ebx,[eax+0x1]
     29a:	c6 00 00             	mov    BYTE PTR [eax],0x0
		while (s--)
     29d:	8b 45 0c             	mov    eax,DWORD PTR [ebp+0xc]
     2a0:	8d 50 ff             	lea    edx,[eax-0x1]
     2a3:	89 55 0c             	mov    DWORD PTR [ebp+0xc],edx
     2a6:	85 c0                	test   eax,eax
     2a8:	75 eb                	jne    295 <bzero+0x3b>
}
     2aa:	90                   	nop
     2ab:	90                   	nop
     2ac:	8b 5d fc             	mov    ebx,DWORD PTR [ebp-0x4]
     2af:	c9                   	leave
     2b0:	c3                   	ret

000002b1 <mem_cpy>:

void mem_cpy(void* d, void* s, size_t c)
{
     2b1:	55                   	push   ebp
     2b2:	89 e5                	mov    ebp,esp
     2b4:	83 ec 10             	sub    esp,0x10
		char *p1 = d, *p2 = s;
     2b7:	8b 45 08             	mov    eax,DWORD PTR [ebp+0x8]
     2ba:	89 45 fc             	mov    DWORD PTR [ebp-0x4],eax
     2bd:	8b 45 0c             	mov    eax,DWORD PTR [ebp+0xc]
     2c0:	89 45 f8             	mov    DWORD PTR [ebp-0x8],eax
		while (c--)
     2c3:	eb 17                	jmp    2dc <mem_cpy+0x2b>
				*p1++ = *p2++;
     2c5:	8b 55 f8             	mov    edx,DWORD PTR [ebp-0x8]
     2c8:	8d 42 01             	lea    eax,[edx+0x1]
     2cb:	89 45 f8             	mov    DWORD PTR [ebp-0x8],eax
     2ce:	8b 45 fc             	mov    eax,DWORD PTR [ebp-0x4]
     2d1:	8d 48 01             	lea    ecx,[eax+0x1]
     2d4:	89 4d fc             	mov    DWORD PTR [ebp-0x4],ecx
     2d7:	0f b6 12             	movzx  edx,BYTE PTR [edx]
     2da:	88 10                	mov    BYTE PTR [eax],dl
		while (c--)
     2dc:	8b 45 10             	mov    eax,DWORD PTR [ebp+0x10]
     2df:	8d 50 ff             	lea    edx,[eax-0x1]
     2e2:	89 55 10             	mov    DWORD PTR [ebp+0x10],edx
     2e5:	85 c0                	test   eax,eax
     2e7:	75 dc                	jne    2c5 <mem_cpy+0x14>
}
     2e9:	90                   	nop
     2ea:	90                   	nop
     2eb:	c9                   	leave
     2ec:	c3                   	ret

000002ed <mm_add_free>:
/*************   MEMORY MAP GENERATION   **************************************/
void mm_add_free(uint64_t b, uint64_t s)
{
     2ed:	55                   	push   ebp
     2ee:	89 e5                	mov    ebp,esp
     2f0:	83 ec 10             	sub    esp,0x10
     2f3:	8b 45 08             	mov    eax,DWORD PTR [ebp+0x8]
     2f6:	89 45 f8             	mov    DWORD PTR [ebp-0x8],eax
     2f9:	8b 45 0c             	mov    eax,DWORD PTR [ebp+0xc]
     2fc:	89 45 fc             	mov    DWORD PTR [ebp-0x4],eax
     2ff:	8b 45 10             	mov    eax,DWORD PTR [ebp+0x10]
     302:	89 45 f0             	mov    DWORD PTR [ebp-0x10],eax
     305:	8b 45 14             	mov    eax,DWORD PTR [ebp+0x14]
     308:	89 45 f4             	mov    DWORD PTR [ebp-0xc],eax
		if (!s)
     30b:	8b 45 f0             	mov    eax,DWORD PTR [ebp-0x10]
     30e:	0b 45 f4             	or     eax,DWORD PTR [ebp-0xc]
     311:	74 5b                	je     36e <mm_add_free+0x81>
				return;
		bzero(&fmm[fm_ofs], sizeof(*fmm));
     313:	ba 00 40 02 00       	mov    edx,0x24000
     318:	a1 18 00 00 00       	mov    eax,ds:0x18
     31d:	6b c0 38             	imul   eax,eax,0x38
     320:	01 d0                	add    eax,edx
     322:	6a 38                	push   0x38
     324:	50                   	push   eax
     325:	e8 fc ff ff ff       	call   326 <mm_add_free+0x39>
     32a:	83 c4 08             	add    esp,0x8
		fmm[fm_ofs].base = b;
     32d:	ba 00 40 02 00       	mov    edx,0x24000
     332:	a1 18 00 00 00       	mov    eax,ds:0x18
     337:	6b c0 38             	imul   eax,eax,0x38
     33a:	8d 0c 02             	lea    ecx,[edx+eax*1]
     33d:	8b 45 f8             	mov    eax,DWORD PTR [ebp-0x8]
     340:	8b 55 fc             	mov    edx,DWORD PTR [ebp-0x4]
     343:	89 01                	mov    DWORD PTR [ecx],eax
     345:	89 51 04             	mov    DWORD PTR [ecx+0x4],edx
		fmm[fm_ofs++].size = s;
     348:	b9 00 40 02 00       	mov    ecx,0x24000
     34d:	a1 18 00 00 00       	mov    eax,ds:0x18
     352:	8d 50 01             	lea    edx,[eax+0x1]
     355:	89 15 18 00 00 00    	mov    DWORD PTR ds:0x18,edx
     35b:	6b c0 38             	imul   eax,eax,0x38
     35e:	01 c1                	add    ecx,eax
     360:	8b 45 f0             	mov    eax,DWORD PTR [ebp-0x10]
     363:	8b 55 f4             	mov    edx,DWORD PTR [ebp-0xc]
     366:	89 41 08             	mov    DWORD PTR [ecx+0x8],eax
     369:	89 51 0c             	mov    DWORD PTR [ecx+0xc],edx
     36c:	eb 01                	jmp    36f <mm_add_free+0x82>
				return;
     36e:	90                   	nop
}
     36f:	c9                   	leave
     370:	c3                   	ret

00000371 <mm_add_reserved>:

/* for providing valid MMIO ranges */
void mm_add_reserved(uint64_t b, uint64_t s)
{
     371:	55                   	push   ebp
     372:	89 e5                	mov    ebp,esp
     374:	83 ec 10             	sub    esp,0x10
     377:	8b 45 08             	mov    eax,DWORD PTR [ebp+0x8]
     37a:	89 45 f8             	mov    DWORD PTR [ebp-0x8],eax
     37d:	8b 45 0c             	mov    eax,DWORD PTR [ebp+0xc]
     380:	89 45 fc             	mov    DWORD PTR [ebp-0x4],eax
     383:	8b 45 10             	mov    eax,DWORD PTR [ebp+0x10]
     386:	89 45 f0             	mov    DWORD PTR [ebp-0x10],eax
     389:	8b 45 14             	mov    eax,DWORD PTR [ebp+0x14]
     38c:	89 45 f4             	mov    DWORD PTR [ebp-0xc],eax
		rmm[rm_count].base = b;
     38f:	ba 00 20 02 00       	mov    edx,0x22000
     394:	a1 20 00 00 00       	mov    eax,ds:0x20
     399:	c1 e0 04             	shl    eax,0x4
     39c:	8d 0c 02             	lea    ecx,[edx+eax*1]
     39f:	8b 45 f8             	mov    eax,DWORD PTR [ebp-0x8]
     3a2:	8b 55 fc             	mov    edx,DWORD PTR [ebp-0x4]
     3a5:	89 01                	mov    DWORD PTR [ecx],eax
     3a7:	89 51 04             	mov    DWORD PTR [ecx+0x4],edx
		rmm[rm_count++].size = s;
     3aa:	b9 00 20 02 00       	mov    ecx,0x22000
     3af:	a1 20 00 00 00       	mov    eax,ds:0x20
     3b4:	8d 50 01             	lea    edx,[eax+0x1]
     3b7:	89 15 20 00 00 00    	mov    DWORD PTR ds:0x20,edx
     3bd:	c1 e0 04             	shl    eax,0x4
     3c0:	01 c1                	add    ecx,eax
     3c2:	8b 45 f0             	mov    eax,DWORD PTR [ebp-0x10]
     3c5:	8b 55 f4             	mov    edx,DWORD PTR [ebp-0xc]
     3c8:	89 41 08             	mov    DWORD PTR [ecx+0x8],eax
     3cb:	89 51 0c             	mov    DWORD PTR [ecx+0xc],edx
}
     3ce:	90                   	nop
     3cf:	c9                   	leave
     3d0:	c3                   	ret

000003d1 <mm_sub_block>:

void mm_sub_block(uint64_t b, uint64_t s)
{
     3d1:	55                   	push   ebp
     3d2:	89 e5                	mov    ebp,esp
     3d4:	53                   	push   ebx
     3d5:	83 ec 34             	sub    esp,0x34
     3d8:	8b 45 08             	mov    eax,DWORD PTR [ebp+0x8]
     3db:	89 45 d0             	mov    DWORD PTR [ebp-0x30],eax
     3de:	8b 45 0c             	mov    eax,DWORD PTR [ebp+0xc]
     3e1:	89 45 d4             	mov    DWORD PTR [ebp-0x2c],eax
     3e4:	8b 45 10             	mov    eax,DWORD PTR [ebp+0x10]
     3e7:	89 45 c8             	mov    DWORD PTR [ebp-0x38],eax
     3ea:	8b 45 14             	mov    eax,DWORD PTR [ebp+0x14]
     3ed:	89 45 cc             	mov    DWORD PTR [ebp-0x34],eax
		size_t ofs;
		uint64_t end = b + s;
     3f0:	8b 4d d0             	mov    ecx,DWORD PTR [ebp-0x30]
     3f3:	8b 5d d4             	mov    ebx,DWORD PTR [ebp-0x2c]
     3f6:	8b 45 c8             	mov    eax,DWORD PTR [ebp-0x38]
     3f9:	8b 55 cc             	mov    edx,DWORD PTR [ebp-0x34]
     3fc:	01 c8                	add    eax,ecx
     3fe:	11 da                	adc    edx,ebx
     400:	89 45 e8             	mov    DWORD PTR [ebp-0x18],eax
     403:	89 55 ec             	mov    DWORD PTR [ebp-0x14],edx
		if (!s)
     406:	8b 45 c8             	mov    eax,DWORD PTR [ebp-0x38]
     409:	0b 45 cc             	or     eax,DWORD PTR [ebp-0x34]
     40c:	0f 84 6c 02 00 00    	je     67e <mm_sub_block+0x2ad>
				return;
		/* search for conflicting entries */
		for (ofs = 0; ofs < fm_ofs; ofs++) {
     412:	c7 45 f4 00 00 00 00 	mov    DWORD PTR [ebp-0xc],0x0
     419:	e9 50 02 00 00       	jmp    66e <mm_sub_block+0x29d>
				uint64_t b2 = fmm[ofs].base;
     41e:	ba 00 40 02 00       	mov    edx,0x24000
     423:	8b 45 f4             	mov    eax,DWORD PTR [ebp-0xc]
     426:	6b c0 38             	imul   eax,eax,0x38
     429:	01 d0                	add    eax,edx
     42b:	8b 50 04             	mov    edx,DWORD PTR [eax+0x4]
     42e:	8b 00                	mov    eax,DWORD PTR [eax]
     430:	89 45 e0             	mov    DWORD PTR [ebp-0x20],eax
     433:	89 55 e4             	mov    DWORD PTR [ebp-0x1c],edx
				uint64_t end2 = b2 + fmm[ofs].size;
     436:	ba 00 40 02 00       	mov    edx,0x24000
     43b:	8b 45 f4             	mov    eax,DWORD PTR [ebp-0xc]
     43e:	6b c0 38             	imul   eax,eax,0x38
     441:	01 d0                	add    eax,edx
     443:	8b 48 08             	mov    ecx,DWORD PTR [eax+0x8]
     446:	8b 58 0c             	mov    ebx,DWORD PTR [eax+0xc]
     449:	8b 45 e0             	mov    eax,DWORD PTR [ebp-0x20]
     44c:	8b 55 e4             	mov    edx,DWORD PTR [ebp-0x1c]
     44f:	01 c8                	add    eax,ecx
     451:	11 da                	adc    edx,ebx
     453:	89 45 d8             	mov    DWORD PTR [ebp-0x28],eax
     456:	89 55 dc             	mov    DWORD PTR [ebp-0x24],edx

				/* any overlap? */
				if ((end > b2) && (b < end2)) {
     459:	8b 45 e8             	mov    eax,DWORD PTR [ebp-0x18]
     45c:	8b 55 ec             	mov    edx,DWORD PTR [ebp-0x14]
     45f:	8b 4d e4             	mov    ecx,DWORD PTR [ebp-0x1c]
     462:	39 45 e0             	cmp    DWORD PTR [ebp-0x20],eax
     465:	19 d1                	sbb    ecx,edx
     467:	0f 83 fd 01 00 00    	jae    66a <mm_sub_block+0x299>
     46d:	8b 45 d0             	mov    eax,DWORD PTR [ebp-0x30]
     470:	8b 55 d4             	mov    edx,DWORD PTR [ebp-0x2c]
     473:	3b 45 d8             	cmp    eax,DWORD PTR [ebp-0x28]
     476:	89 d0                	mov    eax,edx
     478:	1b 45 dc             	sbb    eax,DWORD PTR [ebp-0x24]
     47b:	0f 83 e9 01 00 00    	jae    66a <mm_sub_block+0x299>
						putstr("O");
     481:	83 ec 0c             	sub    esp,0xc
     484:	68 0e 00 00 00       	push   0xe
     489:	e8 fc ff ff ff       	call   48a <mm_sub_block+0xb9>
     48e:	83 c4 10             	add    esp,0x10
						if (b <= b2) {
     491:	8b 45 d0             	mov    eax,DWORD PTR [ebp-0x30]
     494:	8b 55 d4             	mov    edx,DWORD PTR [ebp-0x2c]
     497:	8b 4d e4             	mov    ecx,DWORD PTR [ebp-0x1c]
     49a:	39 45 e0             	cmp    DWORD PTR [ebp-0x20],eax
     49d:	19 d1                	sbb    ecx,edx
     49f:	0f 82 2e 01 00 00    	jb     5d3 <mm_sub_block+0x202>
								/* overlap below */
								if (b + s >= end2) {
     4a5:	8b 4d d0             	mov    ecx,DWORD PTR [ebp-0x30]
     4a8:	8b 5d d4             	mov    ebx,DWORD PTR [ebp-0x2c]
     4ab:	8b 45 c8             	mov    eax,DWORD PTR [ebp-0x38]
     4ae:	8b 55 cc             	mov    edx,DWORD PTR [ebp-0x34]
     4b1:	01 c8                	add    eax,ecx
     4b3:	11 da                	adc    edx,ebx
     4b5:	3b 45 d8             	cmp    eax,DWORD PTR [ebp-0x28]
     4b8:	89 d0                	mov    eax,edx
     4ba:	1b 45 dc             	sbb    eax,DWORD PTR [ebp-0x24]
     4bd:	0f 82 d2 00 00 00    	jb     595 <mm_sub_block+0x1c4>
										/* complete overlap */
										if (ofs + 1 < fm_ofs) { /* swap out */
     4c3:	8b 45 f4             	mov    eax,DWORD PTR [ebp-0xc]
     4c6:	8d 50 01             	lea    edx,[eax+0x1]
     4c9:	a1 18 00 00 00       	mov    eax,ds:0x18
     4ce:	39 c2                	cmp    edx,eax
     4d0:	0f 83 ab 01 00 00    	jae    681 <mm_sub_block+0x2b0>
												fmm[ofs--] = fmm[--fm_ofs];
     4d6:	ba 00 40 02 00       	mov    edx,0x24000
     4db:	a1 18 00 00 00       	mov    eax,ds:0x18
     4e0:	83 e8 01             	sub    eax,0x1
     4e3:	a3 18 00 00 00       	mov    ds:0x18,eax
     4e8:	a1 18 00 00 00       	mov    eax,ds:0x18
     4ed:	6b c0 38             	imul   eax,eax,0x38
     4f0:	01 c2                	add    edx,eax
     4f2:	bb 00 40 02 00       	mov    ebx,0x24000
     4f7:	8b 45 f4             	mov    eax,DWORD PTR [ebp-0xc]
     4fa:	8d 48 ff             	lea    ecx,[eax-0x1]
     4fd:	89 4d f4             	mov    DWORD PTR [ebp-0xc],ecx
     500:	6b c0 38             	imul   eax,eax,0x38
     503:	01 d8                	add    eax,ebx
     505:	8b 0a                	mov    ecx,DWORD PTR [edx]
     507:	89 08                	mov    DWORD PTR [eax],ecx
     509:	8b 4a 04             	mov    ecx,DWORD PTR [edx+0x4]
     50c:	89 48 04             	mov    DWORD PTR [eax+0x4],ecx
     50f:	8b 4a 08             	mov    ecx,DWORD PTR [edx+0x8]
     512:	89 48 08             	mov    DWORD PTR [eax+0x8],ecx
     515:	8b 4a 0c             	mov    ecx,DWORD PTR [edx+0xc]
     518:	89 48 0c             	mov    DWORD PTR [eax+0xc],ecx
     51b:	8b 4a 10             	mov    ecx,DWORD PTR [edx+0x10]
     51e:	89 48 10             	mov    DWORD PTR [eax+0x10],ecx
     521:	8b 4a 14             	mov    ecx,DWORD PTR [edx+0x14]
     524:	89 48 14             	mov    DWORD PTR [eax+0x14],ecx
     527:	8b 4a 18             	mov    ecx,DWORD PTR [edx+0x18]
     52a:	89 48 18             	mov    DWORD PTR [eax+0x18],ecx
     52d:	8b 4a 1c             	mov    ecx,DWORD PTR [edx+0x1c]
     530:	89 48 1c             	mov    DWORD PTR [eax+0x1c],ecx
     533:	8b 4a 20             	mov    ecx,DWORD PTR [edx+0x20]
     536:	89 48 20             	mov    DWORD PTR [eax+0x20],ecx
     539:	8b 4a 24             	mov    ecx,DWORD PTR [edx+0x24]
     53c:	89 48 24             	mov    DWORD PTR [eax+0x24],ecx
     53f:	8b 4a 28             	mov    ecx,DWORD PTR [edx+0x28]
     542:	89 48 28             	mov    DWORD PTR [eax+0x28],ecx
     545:	8b 4a 2c             	mov    ecx,DWORD PTR [edx+0x2c]
     548:	89 48 2c             	mov    DWORD PTR [eax+0x2c],ecx
     54b:	8b 4a 30             	mov    ecx,DWORD PTR [edx+0x30]
     54e:	89 48 30             	mov    DWORD PTR [eax+0x30],ecx
     551:	8b 52 34             	mov    edx,DWORD PTR [edx+0x34]
     554:	89 50 34             	mov    DWORD PTR [eax+0x34],edx
												fmm[fm_ofs].base = 0;
     557:	ba 00 40 02 00       	mov    edx,0x24000
     55c:	a1 18 00 00 00       	mov    eax,ds:0x18
     561:	6b c0 38             	imul   eax,eax,0x38
     564:	01 d0                	add    eax,edx
     566:	c7 00 00 00 00 00    	mov    DWORD PTR [eax],0x0
     56c:	c7 40 04 00 00 00 00 	mov    DWORD PTR [eax+0x4],0x0
												fmm[fm_ofs].size = 0;
     573:	ba 00 40 02 00       	mov    edx,0x24000
     578:	a1 18 00 00 00       	mov    eax,ds:0x18
     57d:	6b c0 38             	imul   eax,eax,0x38
     580:	01 d0                	add    eax,edx
     582:	c7 40 08 00 00 00 00 	mov    DWORD PTR [eax+0x8],0x0
     589:	c7 40 0c 00 00 00 00 	mov    DWORD PTR [eax+0xc],0x0
     590:	e9 d5 00 00 00       	jmp    66a <mm_sub_block+0x299>
										} else
												break;
								} else {
										/* only reduce size */
										fmm[ofs].size = end2 - end;
     595:	ba 00 40 02 00       	mov    edx,0x24000
     59a:	8b 45 f4             	mov    eax,DWORD PTR [ebp-0xc]
     59d:	6b c0 38             	imul   eax,eax,0x38
     5a0:	8d 0c 02             	lea    ecx,[edx+eax*1]
     5a3:	8b 45 d8             	mov    eax,DWORD PTR [ebp-0x28]
     5a6:	8b 55 dc             	mov    edx,DWORD PTR [ebp-0x24]
     5a9:	2b 45 e8             	sub    eax,DWORD PTR [ebp-0x18]
     5ac:	1b 55 ec             	sbb    edx,DWORD PTR [ebp-0x14]
     5af:	89 41 08             	mov    DWORD PTR [ecx+0x8],eax
     5b2:	89 51 0c             	mov    DWORD PTR [ecx+0xc],edx
										fmm[ofs].base = end;
     5b5:	ba 00 40 02 00       	mov    edx,0x24000
     5ba:	8b 45 f4             	mov    eax,DWORD PTR [ebp-0xc]
     5bd:	6b c0 38             	imul   eax,eax,0x38
     5c0:	8d 0c 02             	lea    ecx,[edx+eax*1]
     5c3:	8b 45 e8             	mov    eax,DWORD PTR [ebp-0x18]
     5c6:	8b 55 ec             	mov    edx,DWORD PTR [ebp-0x14]
     5c9:	89 01                	mov    DWORD PTR [ecx],eax
     5cb:	89 51 04             	mov    DWORD PTR [ecx+0x4],edx
     5ce:	e9 97 00 00 00       	jmp    66a <mm_sub_block+0x299>
								}
						} else if (end >= end2) {
     5d3:	8b 45 e8             	mov    eax,DWORD PTR [ebp-0x18]
     5d6:	8b 55 ec             	mov    edx,DWORD PTR [ebp-0x14]
     5d9:	3b 45 d8             	cmp    eax,DWORD PTR [ebp-0x28]
     5dc:	89 d0                	mov    eax,edx
     5de:	1b 45 dc             	sbb    eax,DWORD PTR [ebp-0x24]
     5e1:	72 22                	jb     605 <mm_sub_block+0x234>
								/* overlap on top end */
								fmm[ofs].size = b - b2;
     5e3:	ba 00 40 02 00       	mov    edx,0x24000
     5e8:	8b 45 f4             	mov    eax,DWORD PTR [ebp-0xc]
     5eb:	6b c0 38             	imul   eax,eax,0x38
     5ee:	8d 0c 02             	lea    ecx,[edx+eax*1]
     5f1:	8b 45 d0             	mov    eax,DWORD PTR [ebp-0x30]
     5f4:	8b 55 d4             	mov    edx,DWORD PTR [ebp-0x2c]
     5f7:	2b 45 e0             	sub    eax,DWORD PTR [ebp-0x20]
     5fa:	1b 55 e4             	sbb    edx,DWORD PTR [ebp-0x1c]
     5fd:	89 41 08             	mov    DWORD PTR [ecx+0x8],eax
     600:	89 51 0c             	mov    DWORD PTR [ecx+0xc],edx
     603:	eb 65                	jmp    66a <mm_sub_block+0x299>
						} else {
								/* overlap in center */
								fmm[fm_ofs].base = end; /* top end */
     605:	ba 00 40 02 00       	mov    edx,0x24000
     60a:	a1 18 00 00 00       	mov    eax,ds:0x18
     60f:	6b c0 38             	imul   eax,eax,0x38
     612:	8d 0c 02             	lea    ecx,[edx+eax*1]
     615:	8b 45 e8             	mov    eax,DWORD PTR [ebp-0x18]
     618:	8b 55 ec             	mov    edx,DWORD PTR [ebp-0x14]
     61b:	89 01                	mov    DWORD PTR [ecx],eax
     61d:	89 51 04             	mov    DWORD PTR [ecx+0x4],edx
								fmm[fm_ofs++].size = end2 - end;
     620:	b9 00 40 02 00       	mov    ecx,0x24000
     625:	a1 18 00 00 00       	mov    eax,ds:0x18
     62a:	8d 50 01             	lea    edx,[eax+0x1]
     62d:	89 15 18 00 00 00    	mov    DWORD PTR ds:0x18,edx
     633:	6b c0 38             	imul   eax,eax,0x38
     636:	01 c1                	add    ecx,eax
     638:	8b 45 d8             	mov    eax,DWORD PTR [ebp-0x28]
     63b:	8b 55 dc             	mov    edx,DWORD PTR [ebp-0x24]
     63e:	2b 45 e8             	sub    eax,DWORD PTR [ebp-0x18]
     641:	1b 55 ec             	sbb    edx,DWORD PTR [ebp-0x14]
     644:	89 41 08             	mov    DWORD PTR [ecx+0x8],eax
     647:	89 51 0c             	mov    DWORD PTR [ecx+0xc],edx
								fmm[ofs].size = b - b2; /* lower end */
     64a:	ba 00 40 02 00       	mov    edx,0x24000
     64f:	8b 45 f4             	mov    eax,DWORD PTR [ebp-0xc]
     652:	6b c0 38             	imul   eax,eax,0x38
     655:	8d 0c 02             	lea    ecx,[edx+eax*1]
     658:	8b 45 d0             	mov    eax,DWORD PTR [ebp-0x30]
     65b:	8b 55 d4             	mov    edx,DWORD PTR [ebp-0x2c]
     65e:	2b 45 e0             	sub    eax,DWORD PTR [ebp-0x20]
     661:	1b 55 e4             	sbb    edx,DWORD PTR [ebp-0x1c]
     664:	89 41 08             	mov    DWORD PTR [ecx+0x8],eax
     667:	89 51 0c             	mov    DWORD PTR [ecx+0xc],edx
		for (ofs = 0; ofs < fm_ofs; ofs++) {
     66a:	83 45 f4 01          	add    DWORD PTR [ebp-0xc],0x1
     66e:	a1 18 00 00 00       	mov    eax,ds:0x18
     673:	39 45 f4             	cmp    DWORD PTR [ebp-0xc],eax
     676:	0f 82 a2 fd ff ff    	jb     41e <mm_sub_block+0x4d>
     67c:	eb 04                	jmp    682 <mm_sub_block+0x2b1>
				return;
     67e:	90                   	nop
     67f:	eb 01                	jmp    682 <mm_sub_block+0x2b1>
												break;
     681:	90                   	nop
						}
				}
		}
}
     682:	8b 5d fc             	mov    ebx,DWORD PTR [ebp-0x4]
     685:	c9                   	leave
     686:	c3                   	ret

00000687 <mm_sort_and_merge>:

void mm_sort_and_merge()
{
     687:	55                   	push   ebp
     688:	89 e5                	mov    ebp,esp
     68a:	57                   	push   edi
     68b:	56                   	push   esi
     68c:	53                   	push   ebx
     68d:	83 ec 64             	sub    esp,0x64
		size_t n = fm_ofs, i; int new_n;
     690:	a1 18 00 00 00       	mov    eax,ds:0x18
     695:	89 45 ec             	mov    DWORD PTR [ebp-0x14],eax
		/* bubble sort */
		do {
				new_n = 1;
     698:	c7 45 e4 01 00 00 00 	mov    DWORD PTR [ebp-0x1c],0x1
				for (i = 0; i < n - 1; i++) {
     69f:	c7 45 e8 00 00 00 00 	mov    DWORD PTR [ebp-0x18],0x0
     6a6:	e9 72 01 00 00       	jmp    81d <mm_sort_and_merge+0x196>
						if (fmm[i].base > fmm[i + 1].base) {
     6ab:	ba 00 40 02 00       	mov    edx,0x24000
     6b0:	8b 45 e8             	mov    eax,DWORD PTR [ebp-0x18]
     6b3:	6b c0 38             	imul   eax,eax,0x38
     6b6:	01 d0                	add    eax,edx
     6b8:	8b 50 04             	mov    edx,DWORD PTR [eax+0x4]
     6bb:	8b 00                	mov    eax,DWORD PTR [eax]
     6bd:	bb 00 40 02 00       	mov    ebx,0x24000
     6c2:	8b 4d e8             	mov    ecx,DWORD PTR [ebp-0x18]
     6c5:	83 c1 01             	add    ecx,0x1
     6c8:	6b c9 38             	imul   ecx,ecx,0x38
     6cb:	01 d9                	add    ecx,ebx
     6cd:	8b 59 04             	mov    ebx,DWORD PTR [ecx+0x4]
     6d0:	8b 09                	mov    ecx,DWORD PTR [ecx]
     6d2:	39 c1                	cmp    ecx,eax
     6d4:	89 df                	mov    edi,ebx
     6d6:	19 d7                	sbb    edi,edx
     6d8:	0f 83 3b 01 00 00    	jae    819 <mm_sort_and_merge+0x192>
								struct fme fm = fmm[i + 1];
     6de:	ba 00 40 02 00       	mov    edx,0x24000
     6e3:	8b 45 e8             	mov    eax,DWORD PTR [ebp-0x18]
     6e6:	83 c0 01             	add    eax,0x1
     6e9:	6b c0 38             	imul   eax,eax,0x38
     6ec:	01 d0                	add    eax,edx
     6ee:	8b 10                	mov    edx,DWORD PTR [eax]
     6f0:	89 55 98             	mov    DWORD PTR [ebp-0x68],edx
     6f3:	8b 50 04             	mov    edx,DWORD PTR [eax+0x4]
     6f6:	89 55 9c             	mov    DWORD PTR [ebp-0x64],edx
     6f9:	8b 50 08             	mov    edx,DWORD PTR [eax+0x8]
     6fc:	89 55 a0             	mov    DWORD PTR [ebp-0x60],edx
     6ff:	8b 50 0c             	mov    edx,DWORD PTR [eax+0xc]
     702:	89 55 a4             	mov    DWORD PTR [ebp-0x5c],edx
     705:	8b 50 10             	mov    edx,DWORD PTR [eax+0x10]
     708:	89 55 a8             	mov    DWORD PTR [ebp-0x58],edx
     70b:	8b 50 14             	mov    edx,DWORD PTR [eax+0x14]
     70e:	89 55 ac             	mov    DWORD PTR [ebp-0x54],edx
     711:	8b 50 18             	mov    edx,DWORD PTR [eax+0x18]
     714:	89 55 b0             	mov    DWORD PTR [ebp-0x50],edx
     717:	8b 50 1c             	mov    edx,DWORD PTR [eax+0x1c]
     71a:	89 55 b4             	mov    DWORD PTR [ebp-0x4c],edx
     71d:	8b 50 20             	mov    edx,DWORD PTR [eax+0x20]
     720:	89 55 b8             	mov    DWORD PTR [ebp-0x48],edx
     723:	8b 50 24             	mov    edx,DWORD PTR [eax+0x24]
     726:	89 55 bc             	mov    DWORD PTR [ebp-0x44],edx
     729:	8b 50 28             	mov    edx,DWORD PTR [eax+0x28]
     72c:	89 55 c0             	mov    DWORD PTR [ebp-0x40],edx
     72f:	8b 50 2c             	mov    edx,DWORD PTR [eax+0x2c]
     732:	89 55 c4             	mov    DWORD PTR [ebp-0x3c],edx
     735:	8b 50 30             	mov    edx,DWORD PTR [eax+0x30]
     738:	89 55 c8             	mov    DWORD PTR [ebp-0x38],edx
     73b:	8b 40 34             	mov    eax,DWORD PTR [eax+0x34]
     73e:	89 45 cc             	mov    DWORD PTR [ebp-0x34],eax
								fmm[i + 1] = fmm[i];
     741:	ba 00 40 02 00       	mov    edx,0x24000
     746:	8b 45 e8             	mov    eax,DWORD PTR [ebp-0x18]
     749:	6b c0 38             	imul   eax,eax,0x38
     74c:	01 c2                	add    edx,eax
     74e:	b9 00 40 02 00       	mov    ecx,0x24000
     753:	8b 45 e8             	mov    eax,DWORD PTR [ebp-0x18]
     756:	83 c0 01             	add    eax,0x1
     759:	6b c0 38             	imul   eax,eax,0x38
     75c:	01 c8                	add    eax,ecx
     75e:	8b 0a                	mov    ecx,DWORD PTR [edx]
     760:	89 08                	mov    DWORD PTR [eax],ecx
     762:	8b 4a 04             	mov    ecx,DWORD PTR [edx+0x4]
     765:	89 48 04             	mov    DWORD PTR [eax+0x4],ecx
     768:	8b 4a 08             	mov    ecx,DWORD PTR [edx+0x8]
     76b:	89 48 08             	mov    DWORD PTR [eax+0x8],ecx
     76e:	8b 4a 0c             	mov    ecx,DWORD PTR [edx+0xc]
     771:	89 48 0c             	mov    DWORD PTR [eax+0xc],ecx
     774:	8b 4a 10             	mov    ecx,DWORD PTR [edx+0x10]
     777:	89 48 10             	mov    DWORD PTR [eax+0x10],ecx
     77a:	8b 4a 14             	mov    ecx,DWORD PTR [edx+0x14]
     77d:	89 48 14             	mov    DWORD PTR [eax+0x14],ecx
     780:	8b 4a 18             	mov    ecx,DWORD PTR [edx+0x18]
     783:	89 48 18             	mov    DWORD PTR [eax+0x18],ecx
     786:	8b 4a 1c             	mov    ecx,DWORD PTR [edx+0x1c]
     789:	89 48 1c             	mov    DWORD PTR [eax+0x1c],ecx
     78c:	8b 4a 20             	mov    ecx,DWORD PTR [edx+0x20]
     78f:	89 48 20             	mov    DWORD PTR [eax+0x20],ecx
     792:	8b 4a 24             	mov    ecx,DWORD PTR [edx+0x24]
     795:	89 48 24             	mov    DWORD PTR [eax+0x24],ecx
     798:	8b 4a 28             	mov    ecx,DWORD PTR [edx+0x28]
     79b:	89 48 28             	mov    DWORD PTR [eax+0x28],ecx
     79e:	8b 4a 2c             	mov    ecx,DWORD PTR [edx+0x2c]
     7a1:	89 48 2c             	mov    DWORD PTR [eax+0x2c],ecx
     7a4:	8b 4a 30             	mov    ecx,DWORD PTR [edx+0x30]
     7a7:	89 48 30             	mov    DWORD PTR [eax+0x30],ecx
     7aa:	8b 52 34             	mov    edx,DWORD PTR [edx+0x34]
     7ad:	89 50 34             	mov    DWORD PTR [eax+0x34],edx
								fmm[i] = fm;
     7b0:	ba 00 40 02 00       	mov    edx,0x24000
     7b5:	8b 45 e8             	mov    eax,DWORD PTR [ebp-0x18]
     7b8:	6b c0 38             	imul   eax,eax,0x38
     7bb:	01 d0                	add    eax,edx
     7bd:	8b 55 98             	mov    edx,DWORD PTR [ebp-0x68]
     7c0:	89 10                	mov    DWORD PTR [eax],edx
     7c2:	8b 55 9c             	mov    edx,DWORD PTR [ebp-0x64]
     7c5:	89 50 04             	mov    DWORD PTR [eax+0x4],edx
     7c8:	8b 55 a0             	mov    edx,DWORD PTR [ebp-0x60]
     7cb:	89 50 08             	mov    DWORD PTR [eax+0x8],edx
     7ce:	8b 55 a4             	mov    edx,DWORD PTR [ebp-0x5c]
     7d1:	89 50 0c             	mov    DWORD PTR [eax+0xc],edx
     7d4:	8b 55 a8             	mov    edx,DWORD PTR [ebp-0x58]
     7d7:	89 50 10             	mov    DWORD PTR [eax+0x10],edx
     7da:	8b 55 ac             	mov    edx,DWORD PTR [ebp-0x54]
     7dd:	89 50 14             	mov    DWORD PTR [eax+0x14],edx
     7e0:	8b 55 b0             	mov    edx,DWORD PTR [ebp-0x50]
     7e3:	89 50 18             	mov    DWORD PTR [eax+0x18],edx
     7e6:	8b 55 b4             	mov    edx,DWORD PTR [ebp-0x4c]
     7e9:	89 50 1c             	mov    DWORD PTR [eax+0x1c],edx
     7ec:	8b 55 b8             	mov    edx,DWORD PTR [ebp-0x48]
     7ef:	89 50 20             	mov    DWORD PTR [eax+0x20],edx
     7f2:	8b 55 bc             	mov    edx,DWORD PTR [ebp-0x44]
     7f5:	89 50 24             	mov    DWORD PTR [eax+0x24],edx
     7f8:	8b 55 c0             	mov    edx,DWORD PTR [ebp-0x40]
     7fb:	89 50 28             	mov    DWORD PTR [eax+0x28],edx
     7fe:	8b 55 c4             	mov    edx,DWORD PTR [ebp-0x3c]
     801:	89 50 2c             	mov    DWORD PTR [eax+0x2c],edx
     804:	8b 55 c8             	mov    edx,DWORD PTR [ebp-0x38]
     807:	89 50 30             	mov    DWORD PTR [eax+0x30],edx
     80a:	8b 55 cc             	mov    edx,DWORD PTR [ebp-0x34]
     80d:	89 50 34             	mov    DWORD PTR [eax+0x34],edx
								new_n = i + 1;
     810:	8b 45 e8             	mov    eax,DWORD PTR [ebp-0x18]
     813:	83 c0 01             	add    eax,0x1
     816:	89 45 e4             	mov    DWORD PTR [ebp-0x1c],eax
				for (i = 0; i < n - 1; i++) {
     819:	83 45 e8 01          	add    DWORD PTR [ebp-0x18],0x1
     81d:	8b 45 ec             	mov    eax,DWORD PTR [ebp-0x14]
     820:	83 e8 01             	sub    eax,0x1
     823:	39 45 e8             	cmp    DWORD PTR [ebp-0x18],eax
     826:	0f 82 7f fe ff ff    	jb     6ab <mm_sort_and_merge+0x24>
						}
				}
				n = new_n;
     82c:	8b 45 e4             	mov    eax,DWORD PTR [ebp-0x1c]
     82f:	89 45 ec             	mov    DWORD PTR [ebp-0x14],eax
		} while (n > 1);
     832:	83 7d ec 01          	cmp    DWORD PTR [ebp-0x14],0x1
     836:	0f 87 5c fe ff ff    	ja     698 <mm_sort_and_merge+0x11>
		/* do the same with the reserved entries */
		do {
				new_n = 1;
     83c:	c7 45 e4 01 00 00 00 	mov    DWORD PTR [ebp-0x1c],0x1
				for (i = 0; i < n; i++) {
     843:	c7 45 e8 00 00 00 00 	mov    DWORD PTR [ebp-0x18],0x0
     84a:	e9 be 00 00 00       	jmp    90d <mm_sort_and_merge+0x286>
						if (rmm[i].base > rmm[i + 1].base) {
     84f:	ba 00 20 02 00       	mov    edx,0x22000
     854:	8b 45 e8             	mov    eax,DWORD PTR [ebp-0x18]
     857:	c1 e0 04             	shl    eax,0x4
     85a:	01 d0                	add    eax,edx
     85c:	8b 50 04             	mov    edx,DWORD PTR [eax+0x4]
     85f:	8b 00                	mov    eax,DWORD PTR [eax]
     861:	bb 00 20 02 00       	mov    ebx,0x22000
     866:	8b 4d e8             	mov    ecx,DWORD PTR [ebp-0x18]
     869:	83 c1 01             	add    ecx,0x1
     86c:	c1 e1 04             	shl    ecx,0x4
     86f:	01 d9                	add    ecx,ebx
     871:	8b 59 04             	mov    ebx,DWORD PTR [ecx+0x4]
     874:	8b 09                	mov    ecx,DWORD PTR [ecx]
     876:	39 c1                	cmp    ecx,eax
     878:	89 df                	mov    edi,ebx
     87a:	19 d7                	sbb    edi,edx
     87c:	0f 83 87 00 00 00    	jae    909 <mm_sort_and_merge+0x282>
								struct rme rm = rmm[i + 1];
     882:	ba 00 20 02 00       	mov    edx,0x22000
     887:	8b 45 e8             	mov    eax,DWORD PTR [ebp-0x18]
     88a:	83 c0 01             	add    eax,0x1
     88d:	c1 e0 04             	shl    eax,0x4
     890:	01 d0                	add    eax,edx
     892:	8b 10                	mov    edx,DWORD PTR [eax]
     894:	89 55 d0             	mov    DWORD PTR [ebp-0x30],edx
     897:	8b 50 04             	mov    edx,DWORD PTR [eax+0x4]
     89a:	89 55 d4             	mov    DWORD PTR [ebp-0x2c],edx
     89d:	8b 50 08             	mov    edx,DWORD PTR [eax+0x8]
     8a0:	89 55 d8             	mov    DWORD PTR [ebp-0x28],edx
     8a3:	8b 40 0c             	mov    eax,DWORD PTR [eax+0xc]
     8a6:	89 45 dc             	mov    DWORD PTR [ebp-0x24],eax
								rmm[i + 1] = rmm[i];
     8a9:	ba 00 20 02 00       	mov    edx,0x22000
     8ae:	8b 45 e8             	mov    eax,DWORD PTR [ebp-0x18]
     8b1:	c1 e0 04             	shl    eax,0x4
     8b4:	01 c2                	add    edx,eax
     8b6:	b9 00 20 02 00       	mov    ecx,0x22000
     8bb:	8b 45 e8             	mov    eax,DWORD PTR [ebp-0x18]
     8be:	83 c0 01             	add    eax,0x1
     8c1:	c1 e0 04             	shl    eax,0x4
     8c4:	01 c8                	add    eax,ecx
     8c6:	8b 0a                	mov    ecx,DWORD PTR [edx]
     8c8:	89 08                	mov    DWORD PTR [eax],ecx
     8ca:	8b 4a 04             	mov    ecx,DWORD PTR [edx+0x4]
     8cd:	89 48 04             	mov    DWORD PTR [eax+0x4],ecx
     8d0:	8b 4a 08             	mov    ecx,DWORD PTR [edx+0x8]
     8d3:	89 48 08             	mov    DWORD PTR [eax+0x8],ecx
     8d6:	8b 52 0c             	mov    edx,DWORD PTR [edx+0xc]
     8d9:	89 50 0c             	mov    DWORD PTR [eax+0xc],edx
								rmm[i] = rm;
     8dc:	ba 00 20 02 00       	mov    edx,0x22000
     8e1:	8b 45 e8             	mov    eax,DWORD PTR [ebp-0x18]
     8e4:	c1 e0 04             	shl    eax,0x4
     8e7:	01 d0                	add    eax,edx
     8e9:	8b 55 d0             	mov    edx,DWORD PTR [ebp-0x30]
     8ec:	89 10                	mov    DWORD PTR [eax],edx
     8ee:	8b 55 d4             	mov    edx,DWORD PTR [ebp-0x2c]
     8f1:	89 50 04             	mov    DWORD PTR [eax+0x4],edx
     8f4:	8b 55 d8             	mov    edx,DWORD PTR [ebp-0x28]
     8f7:	89 50 08             	mov    DWORD PTR [eax+0x8],edx
     8fa:	8b 55 dc             	mov    edx,DWORD PTR [ebp-0x24]
     8fd:	89 50 0c             	mov    DWORD PTR [eax+0xc],edx
								new_n = i + 1;
     900:	8b 45 e8             	mov    eax,DWORD PTR [ebp-0x18]
     903:	83 c0 01             	add    eax,0x1
     906:	89 45 e4             	mov    DWORD PTR [ebp-0x1c],eax
				for (i = 0; i < n; i++) {
     909:	83 45 e8 01          	add    DWORD PTR [ebp-0x18],0x1
     90d:	8b 45 e8             	mov    eax,DWORD PTR [ebp-0x18]
     910:	3b 45 ec             	cmp    eax,DWORD PTR [ebp-0x14]
     913:	0f 82 36 ff ff ff    	jb     84f <mm_sort_and_merge+0x1c8>
						}
				}
		} while (n > 1);
     919:	83 7d ec 01          	cmp    DWORD PTR [ebp-0x14],0x1
     91d:	0f 87 19 ff ff ff    	ja     83c <mm_sort_and_merge+0x1b5>

		/* merge adjacent elements */
		for (i = 0; i < fm_ofs - 1; i++)
     923:	c7 45 e8 00 00 00 00 	mov    DWORD PTR [ebp-0x18],0x0
     92a:	e9 88 01 00 00       	jmp    ab7 <mm_sort_and_merge+0x430>
				if (fmm[i].base + fmm[i].size >= fmm[i + 1].base) {
     92f:	ba 00 40 02 00       	mov    edx,0x24000
     934:	8b 45 e8             	mov    eax,DWORD PTR [ebp-0x18]
     937:	6b c0 38             	imul   eax,eax,0x38
     93a:	01 d0                	add    eax,edx
     93c:	8b 08                	mov    ecx,DWORD PTR [eax]
     93e:	8b 58 04             	mov    ebx,DWORD PTR [eax+0x4]
     941:	ba 00 40 02 00       	mov    edx,0x24000
     946:	8b 45 e8             	mov    eax,DWORD PTR [ebp-0x18]
     949:	6b c0 38             	imul   eax,eax,0x38
     94c:	01 d0                	add    eax,edx
     94e:	8b 50 0c             	mov    edx,DWORD PTR [eax+0xc]
     951:	8b 40 08             	mov    eax,DWORD PTR [eax+0x8]
     954:	01 c1                	add    ecx,eax
     956:	11 d3                	adc    ebx,edx
     958:	ba 00 40 02 00       	mov    edx,0x24000
     95d:	8b 45 e8             	mov    eax,DWORD PTR [ebp-0x18]
     960:	83 c0 01             	add    eax,0x1
     963:	6b c0 38             	imul   eax,eax,0x38
     966:	01 d0                	add    eax,edx
     968:	8b 50 04             	mov    edx,DWORD PTR [eax+0x4]
     96b:	8b 00                	mov    eax,DWORD PTR [eax]
     96d:	39 c1                	cmp    ecx,eax
     96f:	19 d3                	sbb    ebx,edx
     971:	0f 82 3c 01 00 00    	jb     ab3 <mm_sort_and_merge+0x42c>
						fmm[i].size = (fmm[i + 1].base + fmm[i + 1].size) - fmm[i].base;
     977:	ba 00 40 02 00       	mov    edx,0x24000
     97c:	8b 45 e8             	mov    eax,DWORD PTR [ebp-0x18]
     97f:	83 c0 01             	add    eax,0x1
     982:	6b c0 38             	imul   eax,eax,0x38
     985:	01 d0                	add    eax,edx
     987:	8b 08                	mov    ecx,DWORD PTR [eax]
     989:	8b 58 04             	mov    ebx,DWORD PTR [eax+0x4]
     98c:	ba 00 40 02 00       	mov    edx,0x24000
     991:	8b 45 e8             	mov    eax,DWORD PTR [ebp-0x18]
     994:	83 c0 01             	add    eax,0x1
     997:	6b c0 38             	imul   eax,eax,0x38
     99a:	01 d0                	add    eax,edx
     99c:	8b 50 0c             	mov    edx,DWORD PTR [eax+0xc]
     99f:	8b 40 08             	mov    eax,DWORD PTR [eax+0x8]
     9a2:	01 c8                	add    eax,ecx
     9a4:	11 da                	adc    edx,ebx
     9a6:	bb 00 40 02 00       	mov    ebx,0x24000
     9ab:	8b 4d e8             	mov    ecx,DWORD PTR [ebp-0x18]
     9ae:	6b c9 38             	imul   ecx,ecx,0x38
     9b1:	01 d9                	add    ecx,ebx
     9b3:	8b 59 04             	mov    ebx,DWORD PTR [ecx+0x4]
     9b6:	8b 09                	mov    ecx,DWORD PTR [ecx]
     9b8:	bf 00 40 02 00       	mov    edi,0x24000
     9bd:	8b 75 e8             	mov    esi,DWORD PTR [ebp-0x18]
     9c0:	6b f6 38             	imul   esi,esi,0x38
     9c3:	01 fe                	add    esi,edi
     9c5:	29 c8                	sub    eax,ecx
     9c7:	19 da                	sbb    edx,ebx
     9c9:	89 46 08             	mov    DWORD PTR [esi+0x8],eax
     9cc:	89 56 0c             	mov    DWORD PTR [esi+0xc],edx
						if (i + 1 < fm_ofs) {
     9cf:	8b 45 e8             	mov    eax,DWORD PTR [ebp-0x18]
     9d2:	8d 50 01             	lea    edx,[eax+0x1]
     9d5:	a1 18 00 00 00       	mov    eax,ds:0x18
     9da:	39 c2                	cmp    edx,eax
     9dc:	0f 83 8b 00 00 00    	jae    a6d <mm_sort_and_merge+0x3e6>
								size_t n;
								for (n = i + 1; n < fm_ofs - 1; n++)
     9e2:	8b 45 e8             	mov    eax,DWORD PTR [ebp-0x18]
     9e5:	83 c0 01             	add    eax,0x1
     9e8:	89 45 e0             	mov    DWORD PTR [ebp-0x20],eax
     9eb:	eb 73                	jmp    a60 <mm_sort_and_merge+0x3d9>
										fmm[n] = fmm[n + 1];
     9ed:	ba 00 40 02 00       	mov    edx,0x24000
     9f2:	8b 45 e0             	mov    eax,DWORD PTR [ebp-0x20]
     9f5:	83 c0 01             	add    eax,0x1
     9f8:	6b c0 38             	imul   eax,eax,0x38
     9fb:	01 c2                	add    edx,eax
     9fd:	b9 00 40 02 00       	mov    ecx,0x24000
     a02:	8b 45 e0             	mov    eax,DWORD PTR [ebp-0x20]
     a05:	6b c0 38             	imul   eax,eax,0x38
     a08:	01 c8                	add    eax,ecx
     a0a:	8b 0a                	mov    ecx,DWORD PTR [edx]
     a0c:	89 08                	mov    DWORD PTR [eax],ecx
     a0e:	8b 4a 04             	mov    ecx,DWORD PTR [edx+0x4]
     a11:	89 48 04             	mov    DWORD PTR [eax+0x4],ecx
     a14:	8b 4a 08             	mov    ecx,DWORD PTR [edx+0x8]
     a17:	89 48 08             	mov    DWORD PTR [eax+0x8],ecx
     a1a:	8b 4a 0c             	mov    ecx,DWORD PTR [edx+0xc]
     a1d:	89 48 0c             	mov    DWORD PTR [eax+0xc],ecx
     a20:	8b 4a 10             	mov    ecx,DWORD PTR [edx+0x10]
     a23:	89 48 10             	mov    DWORD PTR [eax+0x10],ecx
     a26:	8b 4a 14             	mov    ecx,DWORD PTR [edx+0x14]
     a29:	89 48 14             	mov    DWORD PTR [eax+0x14],ecx
     a2c:	8b 4a 18             	mov    ecx,DWORD PTR [edx+0x18]
     a2f:	89 48 18             	mov    DWORD PTR [eax+0x18],ecx
     a32:	8b 4a 1c             	mov    ecx,DWORD PTR [edx+0x1c]
     a35:	89 48 1c             	mov    DWORD PTR [eax+0x1c],ecx
     a38:	8b 4a 20             	mov    ecx,DWORD PTR [edx+0x20]
     a3b:	89 48 20             	mov    DWORD PTR [eax+0x20],ecx
     a3e:	8b 4a 24             	mov    ecx,DWORD PTR [edx+0x24]
     a41:	89 48 24             	mov    DWORD PTR [eax+0x24],ecx
     a44:	8b 4a 28             	mov    ecx,DWORD PTR [edx+0x28]
     a47:	89 48 28             	mov    DWORD PTR [eax+0x28],ecx
     a4a:	8b 4a 2c             	mov    ecx,DWORD PTR [edx+0x2c]
     a4d:	89 48 2c             	mov    DWORD PTR [eax+0x2c],ecx
     a50:	8b 4a 30             	mov    ecx,DWORD PTR [edx+0x30]
     a53:	89 48 30             	mov    DWORD PTR [eax+0x30],ecx
     a56:	8b 52 34             	mov    edx,DWORD PTR [edx+0x34]
     a59:	89 50 34             	mov    DWORD PTR [eax+0x34],edx
								for (n = i + 1; n < fm_ofs - 1; n++)
     a5c:	83 45 e0 01          	add    DWORD PTR [ebp-0x20],0x1
     a60:	a1 18 00 00 00       	mov    eax,ds:0x18
     a65:	83 e8 01             	sub    eax,0x1
     a68:	39 45 e0             	cmp    DWORD PTR [ebp-0x20],eax
     a6b:	72 80                	jb     9ed <mm_sort_and_merge+0x366>
						}
						fm_ofs--;
     a6d:	a1 18 00 00 00       	mov    eax,ds:0x18
     a72:	83 e8 01             	sub    eax,0x1
     a75:	a3 18 00 00 00       	mov    ds:0x18,eax
						fmm[fm_ofs].base = 0;
     a7a:	ba 00 40 02 00       	mov    edx,0x24000
     a7f:	a1 18 00 00 00       	mov    eax,ds:0x18
     a84:	6b c0 38             	imul   eax,eax,0x38
     a87:	01 d0                	add    eax,edx
     a89:	c7 00 00 00 00 00    	mov    DWORD PTR [eax],0x0
     a8f:	c7 40 04 00 00 00 00 	mov    DWORD PTR [eax+0x4],0x0
						fmm[fm_ofs].size = 0;
     a96:	ba 00 40 02 00       	mov    edx,0x24000
     a9b:	a1 18 00 00 00       	mov    eax,ds:0x18
     aa0:	6b c0 38             	imul   eax,eax,0x38
     aa3:	01 d0                	add    eax,edx
     aa5:	c7 40 08 00 00 00 00 	mov    DWORD PTR [eax+0x8],0x0
     aac:	c7 40 0c 00 00 00 00 	mov    DWORD PTR [eax+0xc],0x0
		for (i = 0; i < fm_ofs - 1; i++)
     ab3:	83 45 e8 01          	add    DWORD PTR [ebp-0x18],0x1
     ab7:	a1 18 00 00 00       	mov    eax,ds:0x18
     abc:	83 e8 01             	sub    eax,0x1
     abf:	39 45 e8             	cmp    DWORD PTR [ebp-0x18],eax
     ac2:	0f 82 67 fe ff ff    	jb     92f <mm_sort_and_merge+0x2a8>
				}
}
     ac8:	90                   	nop
     ac9:	90                   	nop
     aca:	83 c4 64             	add    esp,0x64
     acd:	5b                   	pop    ebx
     ace:	5e                   	pop    esi
     acf:	5f                   	pop    edi
     ad0:	5d                   	pop    ebp
     ad1:	c3                   	ret

00000ad2 <mm_init_pmu>:
/*************   PHYSICAL MEMORY ALLOCATION   *********************************/
/* returns nonzero if locked */
int mm_init_pmu(struct pmu* p)
{
     ad2:	55                   	push   ebp
     ad3:	89 e5                	mov    ebp,esp
     ad5:	57                   	push   edi
     ad6:	53                   	push   ebx
		/* check for parallel init */
		if (!__sync_bool_compare_and_swap(&p->free_ct[1], 0xffff, 0xfffe))
     ad7:	8b 45 08             	mov    eax,DWORD PTR [ebp+0x8]
     ada:	8d 50 0a             	lea    edx,[eax+0xa]
     add:	b8 ff ff ff ff       	mov    eax,0xffffffff
     ae2:	b9 fe ff ff ff       	mov    ecx,0xfffffffe
     ae7:	66 f0 0f b1 0a       	lock cmpxchg WORD PTR [edx],cx
     aec:	0f 94 c0             	sete   al
     aef:	83 f0 01             	xor    eax,0x1
     af2:	84 c0                	test   al,al
     af4:	74 07                	je     afd <mm_init_pmu+0x2b>
				return -1;
     af6:	b8 ff ff ff ff       	mov    eax,0xffffffff
     afb:	eb 63                	jmp    b60 <mm_init_pmu+0x8e>

		/* we're free to initialize (all full) */
		__builtin_memset(p->entries, 0xff, sizeof(p->entries));
     afd:	8b 45 08             	mov    eax,DWORD PTR [ebp+0x8]
     b00:	83 c0 10             	add    eax,0x10
     b03:	b9 f0 0f 00 00       	mov    ecx,0xff0
     b08:	bb ff ff ff ff       	mov    ebx,0xffffffff
     b0d:	89 18                	mov    DWORD PTR [eax],ebx
     b0f:	89 5c 08 fc          	mov    DWORD PTR [eax+ecx*1-0x4],ebx
     b13:	8d 50 04             	lea    edx,[eax+0x4]
     b16:	83 e2 fc             	and    edx,0xfffffffc
     b19:	29 d0                	sub    eax,edx
     b1b:	01 c1                	add    ecx,eax
     b1d:	83 e1 fc             	and    ecx,0xfffffffc
     b20:	c1 e9 02             	shr    ecx,0x2
     b23:	89 d7                	mov    edi,edx
     b25:	89 d8                	mov    eax,ebx
     b27:	f3 ab                	rep stos DWORD PTR es:[edi],eax

		/* now release */
		bzero(p->locks, sizeof(p->locks));
     b29:	8b 45 08             	mov    eax,DWORD PTR [ebp+0x8]
     b2c:	6a 08                	push   0x8
     b2e:	50                   	push   eax
     b2f:	e8 fc ff ff ff       	call   b30 <mm_init_pmu+0x5e>
     b34:	83 c4 08             	add    esp,0x8
		p->free_ct[3] = 0;
     b37:	8b 45 08             	mov    eax,DWORD PTR [ebp+0x8]
     b3a:	66 c7 40 0e 00 00    	mov    WORD PTR [eax+0xe],0x0
		p->free_ct[2] = 0;
     b40:	8b 45 08             	mov    eax,DWORD PTR [ebp+0x8]
     b43:	66 c7 40 0c 00 00    	mov    WORD PTR [eax+0xc],0x0
		p->free_ct[1] = 0;
     b49:	8b 45 08             	mov    eax,DWORD PTR [ebp+0x8]
     b4c:	66 c7 40 0a 00 00    	mov    WORD PTR [eax+0xa],0x0
		p->free_ct[0] = 0;
     b52:	8b 45 08             	mov    eax,DWORD PTR [ebp+0x8]
     b55:	66 c7 40 08 00 00    	mov    WORD PTR [eax+0x8],0x0
		return 0;
     b5b:	b8 00 00 00 00       	mov    eax,0x0
}
     b60:	8d 65 f8             	lea    esp,[ebp-0x8]
     b63:	5b                   	pop    ebx
     b64:	5f                   	pop    edi
     b65:	5d                   	pop    ebp
     b66:	c3                   	ret

00000b67 <mm_init_rcp>:

/* returns nonzero if locked */
int mm_init_rcp(struct pmu* p)
{
     b67:	55                   	push   ebp
     b68:	89 e5                	mov    ebp,esp
     b6a:	57                   	push   edi
     b6b:	53                   	push   ebx
     b6c:	83 ec 20             	sub    esp,0x20
		uint16_t rem, fc[4] = { 4096, 4096, 4096, 4096 };
     b6f:	66 c7 45 d8 00 10    	mov    WORD PTR [ebp-0x28],0x1000
     b75:	66 c7 45 da 00 10    	mov    WORD PTR [ebp-0x26],0x1000
     b7b:	66 c7 45 dc 00 10    	mov    WORD PTR [ebp-0x24],0x1000
     b81:	66 c7 45 de 00 10    	mov    WORD PTR [ebp-0x22],0x1000

		/* check for parallel init */
		if (!__sync_bool_compare_and_swap(&p->free_ct[1], 0xffff, 0xfffe))
     b87:	8b 45 08             	mov    eax,DWORD PTR [ebp+0x8]
     b8a:	8d 50 0a             	lea    edx,[eax+0xa]
     b8d:	b8 ff ff ff ff       	mov    eax,0xffffffff
     b92:	b9 fe ff ff ff       	mov    ecx,0xfffffffe
     b97:	66 f0 0f b1 0a       	lock cmpxchg WORD PTR [edx],cx
     b9c:	0f 94 c0             	sete   al
     b9f:	83 f0 01             	xor    eax,0x1
     ba2:	84 c0                	test   al,al
     ba4:	74 0a                	je     bb0 <mm_init_rcp+0x49>
				return -1;
     ba6:	b8 ff ff ff ff       	mov    eax,0xffffffff
     bab:	e9 75 02 00 00       	jmp    e25 <mm_init_rcp+0x2be>

		/* check if last */
		rem = p->free_ct[3];
     bb0:	8b 45 08             	mov    eax,DWORD PTR [ebp+0x8]
     bb3:	0f b7 40 0e          	movzx  eax,WORD PTR [eax+0xe]
     bb7:	66 89 45 f6          	mov    WORD PTR [ebp-0xa],ax

		if (rem != 0xffff) {
     bbb:	66 83 7d f6 ff       	cmp    WORD PTR [ebp-0xa],0xffff
     bc0:	0f 84 f4 01 00 00    	je     dba <mm_init_rcp+0x253>
				for (size_t i = 0; i < 4; i++) {
     bc6:	c7 45 f0 00 00 00 00 	mov    DWORD PTR [ebp-0x10],0x0
     bcd:	e9 dc 01 00 00       	jmp    dae <mm_init_rcp+0x247>
						if (rem >= 4096) { /* still easy */
     bd2:	66 81 7d f6 ff 0f    	cmp    WORD PTR [ebp-0xa],0xfff
     bd8:	76 42                	jbe    c1c <mm_init_rcp+0xb5>
								/* set everything reclaimable */
								__builtin_memset(&p->entries[i], 0xff,
     bda:	8b 45 f0             	mov    eax,DWORD PTR [ebp-0x10]
     bdd:	69 c0 fc 03 00 00    	imul   eax,eax,0x3fc
     be3:	8d 50 10             	lea    edx,[eax+0x10]
     be6:	8b 45 08             	mov    eax,DWORD PTR [ebp+0x8]
     be9:	01 d0                	add    eax,edx
     beb:	b9 fc 03 00 00       	mov    ecx,0x3fc
     bf0:	bb ff ff ff ff       	mov    ebx,0xffffffff
     bf5:	89 18                	mov    DWORD PTR [eax],ebx
     bf7:	89 5c 08 fc          	mov    DWORD PTR [eax+ecx*1-0x4],ebx
     bfb:	8d 50 04             	lea    edx,[eax+0x4]
     bfe:	83 e2 fc             	and    edx,0xfffffffc
     c01:	29 d0                	sub    eax,edx
     c03:	01 c1                	add    ecx,eax
     c05:	83 e1 fc             	and    ecx,0xfffffffc
     c08:	c1 e9 02             	shr    ecx,0x2
     c0b:	89 d7                	mov    edi,edx
     c0d:	89 d8                	mov    eax,ebx
     c0f:	f3 ab                	rep stos DWORD PTR es:[edi],eax
												sizeof(p->entries[i]));
								/* advance */
								rem -= 4096;
     c11:	66 81 6d f6 00 10    	sub    WORD PTR [ebp-0xa],0x1000
     c17:	e9 8e 01 00 00       	jmp    daa <mm_init_rcp+0x243>
						} else {
								/* fill partially (0, 2, 7) */
								for (uint16_t j = 0, of = 0; j < 128; of += 32, j++) {
     c1c:	66 c7 45 ee 00 00    	mov    WORD PTR [ebp-0x12],0x0
     c22:	66 c7 45 ec 00 00    	mov    WORD PTR [ebp-0x14],0x0
     c28:	eb 6e                	jmp    c98 <mm_init_rcp+0x131>
										uint32_t val = 0;
     c2a:	c7 45 e8 00 00 00 00 	mov    DWORD PTR [ebp-0x18],0x0
										if (rem > of) {
     c31:	0f b7 45 f6          	movzx  eax,WORD PTR [ebp-0xa]
     c35:	66 39 45 ec          	cmp    WORD PTR [ebp-0x14],ax
     c39:	73 31                	jae    c6c <mm_init_rcp+0x105>
												if (rem - of >= 32) /* set full */
     c3b:	0f b7 55 f6          	movzx  edx,WORD PTR [ebp-0xa]
     c3f:	0f b7 45 ec          	movzx  eax,WORD PTR [ebp-0x14]
     c43:	29 c2                	sub    edx,eax
     c45:	83 fa 1f             	cmp    edx,0x1f
     c48:	7e 09                	jle    c53 <mm_init_rcp+0xec>
														val = 0xffffffff;
     c4a:	c7 45 e8 ff ff ff ff 	mov    DWORD PTR [ebp-0x18],0xffffffff
     c51:	eb 19                	jmp    c6c <mm_init_rcp+0x105>
												else /* set partial */
														val = (1 << (rem - of)) - 1;
     c53:	0f b7 55 f6          	movzx  edx,WORD PTR [ebp-0xa]
     c57:	0f b7 45 ec          	movzx  eax,WORD PTR [ebp-0x14]
     c5b:	29 c2                	sub    edx,eax
     c5d:	b8 01 00 00 00       	mov    eax,0x1
     c62:	89 d1                	mov    ecx,edx
     c64:	d3 e0                	shl    eax,cl
     c66:	83 e8 01             	sub    eax,0x1
     c69:	89 45 e8             	mov    DWORD PTR [ebp-0x18],eax
										}
										p->entries[i].lvl0[j] = val;
     c6c:	0f b7 5d ee          	movzx  ebx,WORD PTR [ebp-0x12]
     c70:	8b 4d 08             	mov    ecx,DWORD PTR [ebp+0x8]
     c73:	8b 55 f0             	mov    edx,DWORD PTR [ebp-0x10]
     c76:	89 d0                	mov    eax,edx
     c78:	c1 e0 08             	shl    eax,0x8
     c7b:	29 d0                	sub    eax,edx
     c7d:	01 d8                	add    eax,ebx
     c7f:	8d 50 04             	lea    edx,[eax+0x4]
     c82:	8b 45 e8             	mov    eax,DWORD PTR [ebp-0x18]
     c85:	89 04 91             	mov    DWORD PTR [ecx+edx*4],eax
								for (uint16_t j = 0, of = 0; j < 128; of += 32, j++) {
     c88:	66 83 45 ec 20       	add    WORD PTR [ebp-0x14],0x20
     c8d:	0f b7 45 ee          	movzx  eax,WORD PTR [ebp-0x12]
     c91:	83 c0 01             	add    eax,0x1
     c94:	66 89 45 ee          	mov    WORD PTR [ebp-0x12],ax
     c98:	66 83 7d ee 7f       	cmp    WORD PTR [ebp-0x12],0x7f
     c9d:	76 8b                	jbe    c2a <mm_init_rcp+0xc3>
								}
								for (uint16_t j = 0, of = 0; j < 32; of += 128, j++) {
     c9f:	66 c7 45 e6 00 00    	mov    WORD PTR [ebp-0x1a],0x0
     ca5:	66 c7 45 e4 00 00    	mov    WORD PTR [ebp-0x1c],0x0
     cab:	e9 9b 00 00 00       	jmp    d4b <mm_init_rcp+0x1e4>
										uint32_t val = 0;
     cb0:	c7 45 e0 00 00 00 00 	mov    DWORD PTR [ebp-0x20],0x0
										if (rem > of) {
     cb7:	0f b7 45 f6          	movzx  eax,WORD PTR [ebp-0xa]
     cbb:	66 39 45 e4          	cmp    WORD PTR [ebp-0x1c],ax
     cbf:	73 5b                	jae    d1c <mm_init_rcp+0x1b5>
												if (rem - of >= 128)
     cc1:	0f b7 55 f6          	movzx  edx,WORD PTR [ebp-0xa]
     cc5:	0f b7 45 e4          	movzx  eax,WORD PTR [ebp-0x1c]
     cc9:	29 c2                	sub    edx,eax
     ccb:	83 fa 7f             	cmp    edx,0x7f
     cce:	7e 09                	jle    cd9 <mm_init_rcp+0x172>
														val = 0xffffffff;
     cd0:	c7 45 e0 ff ff ff ff 	mov    DWORD PTR [ebp-0x20],0xffffffff
     cd7:	eb 43                	jmp    d1c <mm_init_rcp+0x1b5>
												else /* set partial */
														val = (1 << rdiv(rem - of, 4)) - 1;
     cd9:	0f b7 55 f6          	movzx  edx,WORD PTR [ebp-0xa]
     cdd:	0f b7 45 e4          	movzx  eax,WORD PTR [ebp-0x1c]
     ce1:	29 c2                	sub    edx,eax
     ce3:	89 d0                	mov    eax,edx
     ce5:	8d 50 03             	lea    edx,[eax+0x3]
     ce8:	85 c0                	test   eax,eax
     cea:	0f 48 c2             	cmovs  eax,edx
     ced:	c1 f8 02             	sar    eax,0x2
     cf0:	89 c1                	mov    ecx,eax
     cf2:	0f b7 55 f6          	movzx  edx,WORD PTR [ebp-0xa]
     cf6:	0f b7 45 e4          	movzx  eax,WORD PTR [ebp-0x1c]
     cfa:	29 c2                	sub    edx,eax
     cfc:	89 d0                	mov    eax,edx
     cfe:	83 e0 03             	and    eax,0x3
     d01:	85 c0                	test   eax,eax
     d03:	0f 95 c0             	setne  al
     d06:	0f b6 c0             	movzx  eax,al
     d09:	01 c8                	add    eax,ecx
     d0b:	ba 01 00 00 00       	mov    edx,0x1
     d10:	89 c1                	mov    ecx,eax
     d12:	d3 e2                	shl    edx,cl
     d14:	89 d0                	mov    eax,edx
     d16:	83 e8 01             	sub    eax,0x1
     d19:	89 45 e0             	mov    DWORD PTR [ebp-0x20],eax
										}
										p->entries[i].lvl2[j] = val;
     d1c:	0f b7 5d e6          	movzx  ebx,WORD PTR [ebp-0x1a]
     d20:	8b 4d 08             	mov    ecx,DWORD PTR [ebp+0x8]
     d23:	8b 55 f0             	mov    edx,DWORD PTR [ebp-0x10]
     d26:	89 d0                	mov    eax,edx
     d28:	c1 e0 08             	shl    eax,0x8
     d2b:	29 d0                	sub    eax,edx
     d2d:	01 d8                	add    eax,ebx
     d2f:	8d 90 c4 00 00 00    	lea    edx,[eax+0xc4]
     d35:	8b 45 e0             	mov    eax,DWORD PTR [ebp-0x20]
     d38:	89 04 91             	mov    DWORD PTR [ecx+edx*4],eax
								for (uint16_t j = 0, of = 0; j < 32; of += 128, j++) {
     d3b:	66 83 6d e4 80       	sub    WORD PTR [ebp-0x1c],0xff80
     d40:	0f b7 45 e6          	movzx  eax,WORD PTR [ebp-0x1a]
     d44:	83 c0 01             	add    eax,0x1
     d47:	66 89 45 e6          	mov    WORD PTR [ebp-0x1a],ax
     d4b:	66 83 7d e6 1f       	cmp    WORD PTR [ebp-0x1a],0x1f
     d50:	0f 86 5a ff ff ff    	jbe    cb0 <mm_init_rcp+0x149>
								}
								p->entries[i].lvl7 = (1 << rdiv(rem, 32)) - 1;
     d56:	0f b7 45 f6          	movzx  eax,WORD PTR [ebp-0xa]
     d5a:	66 c1 e8 05          	shr    ax,0x5
     d5e:	0f b7 d0             	movzx  edx,ax
     d61:	0f b7 45 f6          	movzx  eax,WORD PTR [ebp-0xa]
     d65:	83 e0 1f             	and    eax,0x1f
     d68:	66 85 c0             	test   ax,ax
     d6b:	0f 95 c0             	setne  al
     d6e:	0f b6 c0             	movzx  eax,al
     d71:	01 d0                	add    eax,edx
     d73:	ba 01 00 00 00       	mov    edx,0x1
     d78:	89 c1                	mov    ecx,eax
     d7a:	d3 e2                	shl    edx,cl
     d7c:	89 d0                	mov    eax,edx
     d7e:	83 e8 01             	sub    eax,0x1
     d81:	89 c1                	mov    ecx,eax
     d83:	8b 55 08             	mov    edx,DWORD PTR [ebp+0x8]
     d86:	8b 45 f0             	mov    eax,DWORD PTR [ebp-0x10]
     d89:	69 c0 fc 03 00 00    	imul   eax,eax,0x3fc
     d8f:	01 d0                	add    eax,edx
     d91:	05 08 04 00 00       	add    eax,0x408
     d96:	89 08                	mov    DWORD PTR [eax],ecx

								/* advance */
								fc[i] = rem;
     d98:	8b 45 f0             	mov    eax,DWORD PTR [ebp-0x10]
     d9b:	0f b7 55 f6          	movzx  edx,WORD PTR [ebp-0xa]
     d9f:	66 89 54 45 d8       	mov    WORD PTR [ebp+eax*2-0x28],dx
								rem = 0;
     da4:	66 c7 45 f6 00 00    	mov    WORD PTR [ebp-0xa],0x0
				for (size_t i = 0; i < 4; i++) {
     daa:	83 45 f0 01          	add    DWORD PTR [ebp-0x10],0x1
     dae:	83 7d f0 03          	cmp    DWORD PTR [ebp-0x10],0x3
     db2:	0f 86 1a fe ff ff    	jbe    bd2 <mm_init_rcp+0x6b>
     db8:	eb 2c                	jmp    de6 <mm_init_rcp+0x27f>
						}
				}
		} else /* very easy: everything is reclaimable */
				__builtin_memset(p->entries, 0xff, sizeof(p->entries));
     dba:	8b 45 08             	mov    eax,DWORD PTR [ebp+0x8]
     dbd:	83 c0 10             	add    eax,0x10
     dc0:	b9 f0 0f 00 00       	mov    ecx,0xff0
     dc5:	bb ff ff ff ff       	mov    ebx,0xffffffff
     dca:	89 18                	mov    DWORD PTR [eax],ebx
     dcc:	89 5c 08 fc          	mov    DWORD PTR [eax+ecx*1-0x4],ebx
     dd0:	8d 50 04             	lea    edx,[eax+0x4]
     dd3:	83 e2 fc             	and    edx,0xfffffffc
     dd6:	29 d0                	sub    eax,edx
     dd8:	01 c1                	add    ecx,eax
     dda:	83 e1 fc             	and    ecx,0xfffffffc
     ddd:	c1 e9 02             	shr    ecx,0x2
     de0:	89 d7                	mov    edi,edx
     de2:	89 d8                	mov    eax,ebx
     de4:	f3 ab                	rep stos DWORD PTR es:[edi],eax

		/* now release */
		bzero(p->locks, sizeof(p->locks));
     de6:	8b 45 08             	mov    eax,DWORD PTR [ebp+0x8]
     de9:	6a 08                	push   0x8
     deb:	50                   	push   eax
     dec:	e8 fc ff ff ff       	call   ded <mm_init_rcp+0x286>
     df1:	83 c4 08             	add    esp,0x8
		p->free_ct[3] = fc[3];
     df4:	0f b7 55 de          	movzx  edx,WORD PTR [ebp-0x22]
     df8:	8b 45 08             	mov    eax,DWORD PTR [ebp+0x8]
     dfb:	66 89 50 0e          	mov    WORD PTR [eax+0xe],dx
		p->free_ct[2] = fc[2];
     dff:	0f b7 55 dc          	movzx  edx,WORD PTR [ebp-0x24]
     e03:	8b 45 08             	mov    eax,DWORD PTR [ebp+0x8]
     e06:	66 89 50 0c          	mov    WORD PTR [eax+0xc],dx
		p->free_ct[1] = fc[1];
     e0a:	0f b7 55 da          	movzx  edx,WORD PTR [ebp-0x26]
     e0e:	8b 45 08             	mov    eax,DWORD PTR [ebp+0x8]
     e11:	66 89 50 0a          	mov    WORD PTR [eax+0xa],dx
		p->free_ct[0] = fc[0];
     e15:	0f b7 55 d8          	movzx  edx,WORD PTR [ebp-0x28]
     e19:	8b 45 08             	mov    eax,DWORD PTR [ebp+0x8]
     e1c:	66 89 50 08          	mov    WORD PTR [eax+0x8],dx
		return 0;
     e20:	b8 00 00 00 00       	mov    eax,0x0
}
     e25:	8d 65 f8             	lea    esp,[ebp-0x8]
     e28:	5b                   	pop    ebx
     e29:	5f                   	pop    edi
     e2a:	5d                   	pop    ebp
     e2b:	c3                   	ret

00000e2c <mm_pmue_get_range>:
/* assume caller know about locking and has made the right reservations
 * for us to operate freely on the range given by the limits. */
uint32_t mm_pmue_get_range(struct pmue* p, uint32_t b, uint32_t e, uint32_t lvl,
				uint32_t pg_ct, struct page_range* pr, uint32_t pr_ct,
				uint32_t* n_pr, uint32_t* bsir, uint64_t base)
{
     e2c:	55                   	push   ebp
     e2d:	89 e5                	mov    ebp,esp
     e2f:	53                   	push   ebx
     e30:	83 ec 44             	sub    esp,0x44
     e33:	8b 45 2c             	mov    eax,DWORD PTR [ebp+0x2c]
     e36:	89 45 c0             	mov    DWORD PTR [ebp-0x40],eax
     e39:	8b 45 30             	mov    eax,DWORD PTR [ebp+0x30]
     e3c:	89 45 c4             	mov    DWORD PTR [ebp-0x3c],eax
		uint32_t* bitfield, rv = 0;
     e3f:	c7 45 f0 00 00 00 00 	mov    DWORD PTR [ebp-0x10],0x0

		/* set the reference */
		switch (lvl) {
     e46:	83 7d 14 07          	cmp    DWORD PTR [ebp+0x14],0x7
     e4a:	77 72                	ja     ebe <mm_pmue_get_range+0x92>
     e4c:	8b 45 14             	mov    eax,DWORD PTR [ebp+0x14]
     e4f:	c1 e0 02             	shl    eax,0x2
     e52:	05 14 00 00 00       	add    eax,0x14
     e57:	8b 00                	mov    eax,DWORD PTR [eax]
     e59:	ff e0                	jmp    eax
				case 7:
						bitfield = &p->lvl7;
     e5b:	8b 45 08             	mov    eax,DWORD PTR [ebp+0x8]
     e5e:	05 f8 03 00 00       	add    eax,0x3f8
     e63:	89 45 f4             	mov    DWORD PTR [ebp-0xc],eax
						break;
     e66:	eb 58                	jmp    ec0 <mm_pmue_get_range+0x94>
				case 6:
						bitfield = p->lvl6;
     e68:	8b 45 08             	mov    eax,DWORD PTR [ebp+0x8]
     e6b:	05 f0 03 00 00       	add    eax,0x3f0
     e70:	89 45 f4             	mov    DWORD PTR [ebp-0xc],eax
						break;
     e73:	eb 4b                	jmp    ec0 <mm_pmue_get_range+0x94>
				case 5:
						bitfield = p->lvl5;
     e75:	8b 45 08             	mov    eax,DWORD PTR [ebp+0x8]
     e78:	05 e0 03 00 00       	add    eax,0x3e0
     e7d:	89 45 f4             	mov    DWORD PTR [ebp-0xc],eax
						break;
     e80:	eb 3e                	jmp    ec0 <mm_pmue_get_range+0x94>
				case 4:
						bitfield = p->lvl4;
     e82:	8b 45 08             	mov    eax,DWORD PTR [ebp+0x8]
     e85:	05 c0 03 00 00       	add    eax,0x3c0
     e8a:	89 45 f4             	mov    DWORD PTR [ebp-0xc],eax
						break;
     e8d:	eb 31                	jmp    ec0 <mm_pmue_get_range+0x94>
				case 3:
						bitfield = p->lvl3;
     e8f:	8b 45 08             	mov    eax,DWORD PTR [ebp+0x8]
     e92:	05 80 03 00 00       	add    eax,0x380
     e97:	89 45 f4             	mov    DWORD PTR [ebp-0xc],eax
						break;
     e9a:	eb 24                	jmp    ec0 <mm_pmue_get_range+0x94>
				case 2:
						bitfield = p->lvl2;
     e9c:	8b 45 08             	mov    eax,DWORD PTR [ebp+0x8]
     e9f:	05 00 03 00 00       	add    eax,0x300
     ea4:	89 45 f4             	mov    DWORD PTR [ebp-0xc],eax
						break;
     ea7:	eb 17                	jmp    ec0 <mm_pmue_get_range+0x94>
				case 1:
						bitfield = p->lvl1;
     ea9:	8b 45 08             	mov    eax,DWORD PTR [ebp+0x8]
     eac:	05 00 02 00 00       	add    eax,0x200
     eb1:	89 45 f4             	mov    DWORD PTR [ebp-0xc],eax
						break;
     eb4:	eb 0a                	jmp    ec0 <mm_pmue_get_range+0x94>
				case 0:
						bitfield = p->lvl0;
     eb6:	8b 45 08             	mov    eax,DWORD PTR [ebp+0x8]
     eb9:	89 45 f4             	mov    DWORD PTR [ebp-0xc],eax
						break;
     ebc:	eb 02                	jmp    ec0 <mm_pmue_get_range+0x94>
				default:
						while (1);
     ebe:	eb fe                	jmp    ebe <mm_pmue_get_range+0x92>
						break;
		}

		/* now do the bt trick */
		for (uint32_t i = b; i <= e; i++) {
     ec0:	8b 45 0c             	mov    eax,DWORD PTR [ebp+0xc]
     ec3:	89 45 ec             	mov    DWORD PTR [ebp-0x14],eax
     ec6:	e9 d7 01 00 00       	jmp    10a2 <mm_pmue_get_range+0x276>
				/* test each bit */
				asm goto("bt %0, %1\n"
     ecb:	8b 45 ec             	mov    eax,DWORD PTR [ebp-0x14]
     ece:	8b 55 f4             	mov    edx,DWORD PTR [ebp-0xc]
     ed1:	0f a3 02             	bt     DWORD PTR [edx],eax
     ed4:	0f 82 b4 01 00 00    	jb     108e <mm_pmue_get_range+0x262>
						 "jc %l2\n"
						 : : "r" (i), "m" (*bitfield) : "cc" : carry);

				/* we've got a free entry at i */
				if (lvl > 0) {
     eda:	83 7d 14 00          	cmp    DWORD PTR [ebp+0x14],0x0
     ede:	0f 84 b7 00 00 00    	je     f9b <mm_pmue_get_range+0x16f>
						uint32_t rv2, prr = *n_pr, bs = 0;
     ee4:	8b 45 24             	mov    eax,DWORD PTR [ebp+0x24]
     ee7:	8b 00                	mov    eax,DWORD PTR [eax]
     ee9:	89 45 d4             	mov    DWORD PTR [ebp-0x2c],eax
     eec:	c7 45 cc 00 00 00 00 	mov    DWORD PTR [ebp-0x34],0x0
						/* go deeper */
						rv2 = mm_pmue_get_range(p, i * 2, i * 2 + 1,
     ef3:	8b 45 14             	mov    eax,DWORD PTR [ebp+0x14]
     ef6:	8d 58 ff             	lea    ebx,[eax-0x1]
     ef9:	8b 45 ec             	mov    eax,DWORD PTR [ebp-0x14]
     efc:	01 c0                	add    eax,eax
     efe:	8d 48 01             	lea    ecx,[eax+0x1]
     f01:	8b 45 ec             	mov    eax,DWORD PTR [ebp-0x14]
     f04:	8d 14 00             	lea    edx,[eax+eax*1]
     f07:	83 ec 04             	sub    esp,0x4
     f0a:	ff 75 c4             	push   DWORD PTR [ebp-0x3c]
     f0d:	ff 75 c0             	push   DWORD PTR [ebp-0x40]
     f10:	8d 45 cc             	lea    eax,[ebp-0x34]
     f13:	50                   	push   eax
     f14:	ff 75 24             	push   DWORD PTR [ebp+0x24]
     f17:	ff 75 20             	push   DWORD PTR [ebp+0x20]
     f1a:	ff 75 1c             	push   DWORD PTR [ebp+0x1c]
     f1d:	ff 75 18             	push   DWORD PTR [ebp+0x18]
     f20:	53                   	push   ebx
     f21:	51                   	push   ecx
     f22:	52                   	push   edx
     f23:	ff 75 08             	push   DWORD PTR [ebp+0x8]
     f26:	e8 fc ff ff ff       	call   f27 <mm_pmue_get_range+0xfb>
     f2b:	83 c4 30             	add    esp,0x30
     f2e:	89 45 d0             	mov    DWORD PTR [ebp-0x30],eax
								lvl - 1, pg_ct, pr, pr_ct, n_pr, &bs, base);
						/* set counts */
						rv += rv2;
     f31:	8b 45 d0             	mov    eax,DWORD PTR [ebp-0x30]
     f34:	01 45 f0             	add    DWORD PTR [ebp-0x10],eax
						pg_ct -= rv2;
     f37:	8b 45 d0             	mov    eax,DWORD PTR [ebp-0x30]
     f3a:	29 45 18             	sub    DWORD PTR [ebp+0x18],eax
						pr += *n_pr - prr;
     f3d:	8b 45 24             	mov    eax,DWORD PTR [ebp+0x24]
     f40:	8b 00                	mov    eax,DWORD PTR [eax]
     f42:	2b 45 d4             	sub    eax,DWORD PTR [ebp-0x2c]
     f45:	89 c2                	mov    edx,eax
     f47:	89 d0                	mov    eax,edx
     f49:	01 c0                	add    eax,eax
     f4b:	01 d0                	add    eax,edx
     f4d:	c1 e0 02             	shl    eax,0x2
     f50:	01 45 1c             	add    DWORD PTR [ebp+0x1c],eax
						pr_ct -= *n_pr - prr;
     f53:	8b 45 24             	mov    eax,DWORD PTR [ebp+0x24]
     f56:	8b 00                	mov    eax,DWORD PTR [eax]
     f58:	8b 55 d4             	mov    edx,DWORD PTR [ebp-0x2c]
     f5b:	29 c2                	sub    edx,eax
     f5d:	01 55 20             	add    DWORD PTR [ebp+0x20],edx
						/* update by checking bits set in range */
						if (bs == 2) {
     f60:	8b 45 cc             	mov    eax,DWORD PTR [ebp-0x34]
     f63:	83 f8 02             	cmp    eax,0x2
     f66:	75 16                	jne    f7e <mm_pmue_get_range+0x152>
								asm("bts %0, %1\n" : : "r" (i), "m" (*bitfield) : "cc");
     f68:	8b 45 ec             	mov    eax,DWORD PTR [ebp-0x14]
     f6b:	8b 55 f4             	mov    edx,DWORD PTR [ebp-0xc]
     f6e:	0f ab 02             	bts    DWORD PTR [edx],eax
								(*bsir)++;
     f71:	8b 45 28             	mov    eax,DWORD PTR [ebp+0x28]
     f74:	8b 00                	mov    eax,DWORD PTR [eax]
     f76:	8d 50 01             	lea    edx,[eax+0x1]
     f79:	8b 45 28             	mov    eax,DWORD PTR [ebp+0x28]
     f7c:	89 10                	mov    DWORD PTR [eax],edx
						}

						/* and quit if done */
						if (!pg_ct || (!pr_ct & !rv2))
     f7e:	83 7d 18 00          	cmp    DWORD PTR [ebp+0x18],0x0
     f82:	0f 84 26 01 00 00    	je     10ae <mm_pmue_get_range+0x282>
     f88:	8b 45 20             	mov    eax,DWORD PTR [ebp+0x20]
     f8b:	0b 45 d0             	or     eax,DWORD PTR [ebp-0x30]
     f8e:	85 c0                	test   eax,eax
     f90:	0f 84 18 01 00 00    	je     10ae <mm_pmue_get_range+0x282>
						/* check for done */
						if (!pg_ct)
								break;

				}
				continue;
     f96:	e9 02 01 00 00       	jmp    109d <mm_pmue_get_range+0x271>
						uint64_t b = base + i * 4096, bp = 1;
     f9b:	8b 45 ec             	mov    eax,DWORD PTR [ebp-0x14]
     f9e:	c1 e0 0c             	shl    eax,0xc
     fa1:	89 c1                	mov    ecx,eax
     fa3:	bb 00 00 00 00       	mov    ebx,0x0
     fa8:	8b 45 c0             	mov    eax,DWORD PTR [ebp-0x40]
     fab:	8b 55 c4             	mov    edx,DWORD PTR [ebp-0x3c]
     fae:	01 c8                	add    eax,ecx
     fb0:	11 da                	adc    edx,ebx
     fb2:	89 45 d8             	mov    DWORD PTR [ebp-0x28],eax
     fb5:	89 55 dc             	mov    DWORD PTR [ebp-0x24],edx
     fb8:	c7 45 e0 01 00 00 00 	mov    DWORD PTR [ebp-0x20],0x1
     fbf:	c7 45 e4 00 00 00 00 	mov    DWORD PTR [ebp-0x1c],0x0
						asm("bts %0, %1\n" : : "r" (i), "m" (*bitfield) : "cc");
     fc6:	8b 45 ec             	mov    eax,DWORD PTR [ebp-0x14]
     fc9:	8b 55 f4             	mov    edx,DWORD PTR [ebp-0xc]
     fcc:	0f ab 02             	bts    DWORD PTR [edx],eax
						if (*n_pr)
     fcf:	8b 45 24             	mov    eax,DWORD PTR [ebp+0x24]
     fd2:	8b 00                	mov    eax,DWORD PTR [eax]
     fd4:	85 c0                	test   eax,eax
     fd6:	74 26                	je     ffe <mm_pmue_get_range+0x1d2>
								bp = pr[-1].base + 4096 * pr[-1].count;
     fd8:	8b 45 1c             	mov    eax,DWORD PTR [ebp+0x1c]
     fdb:	83 e8 0c             	sub    eax,0xc
     fde:	8b 50 04             	mov    edx,DWORD PTR [eax+0x4]
     fe1:	8b 00                	mov    eax,DWORD PTR [eax]
     fe3:	8b 4d 1c             	mov    ecx,DWORD PTR [ebp+0x1c]
     fe6:	83 e9 0c             	sub    ecx,0xc
     fe9:	8b 49 08             	mov    ecx,DWORD PTR [ecx+0x8]
     fec:	c1 e1 0c             	shl    ecx,0xc
     fef:	bb 00 00 00 00       	mov    ebx,0x0
     ff4:	01 c8                	add    eax,ecx
     ff6:	11 da                	adc    edx,ebx
     ff8:	89 45 e0             	mov    DWORD PTR [ebp-0x20],eax
     ffb:	89 55 e4             	mov    DWORD PTR [ebp-0x1c],edx
						if (b == bp)
     ffe:	8b 45 d8             	mov    eax,DWORD PTR [ebp-0x28]
    1001:	8b 55 dc             	mov    edx,DWORD PTR [ebp-0x24]
    1004:	89 c1                	mov    ecx,eax
    1006:	89 c8                	mov    eax,ecx
    1008:	33 45 e0             	xor    eax,DWORD PTR [ebp-0x20]
    100b:	33 55 e4             	xor    edx,DWORD PTR [ebp-0x1c]
    100e:	09 d0                	or     eax,edx
    1010:	75 11                	jne    1023 <mm_pmue_get_range+0x1f7>
								pr[-1].count++;
    1012:	8b 45 1c             	mov    eax,DWORD PTR [ebp+0x1c]
    1015:	83 e8 0c             	sub    eax,0xc
    1018:	8b 50 08             	mov    edx,DWORD PTR [eax+0x8]
    101b:	83 c2 01             	add    edx,0x1
    101e:	89 50 08             	mov    DWORD PTR [eax+0x8],edx
    1021:	eb 4e                	jmp    1071 <mm_pmue_get_range+0x245>
								if (!pr_ct) { /* rollback */
    1023:	83 7d 20 00          	cmp    DWORD PTR [ebp+0x20],0x0
    1027:	75 1b                	jne    1044 <mm_pmue_get_range+0x218>
										asm("btc %0, %1\n" : : "r" (i), "m" (*bitfield) : "cc");
    1029:	8b 45 ec             	mov    eax,DWORD PTR [ebp-0x14]
    102c:	8b 55 f4             	mov    edx,DWORD PTR [ebp-0xc]
    102f:	0f bb 02             	btc    DWORD PTR [edx],eax
										putstr("rb");
    1032:	83 ec 0c             	sub    esp,0xc
    1035:	68 10 00 00 00       	push   0x10
    103a:	e8 fc ff ff ff       	call   103b <mm_pmue_get_range+0x20f>
    103f:	83 c4 10             	add    esp,0x10
										break;
    1042:	eb 6a                	jmp    10ae <mm_pmue_get_range+0x282>
								pr->base = b;
    1044:	8b 4d 1c             	mov    ecx,DWORD PTR [ebp+0x1c]
    1047:	8b 45 d8             	mov    eax,DWORD PTR [ebp-0x28]
    104a:	8b 55 dc             	mov    edx,DWORD PTR [ebp-0x24]
    104d:	89 01                	mov    DWORD PTR [ecx],eax
    104f:	89 51 04             	mov    DWORD PTR [ecx+0x4],edx
								pr->count = 1;
    1052:	8b 45 1c             	mov    eax,DWORD PTR [ebp+0x1c]
    1055:	c7 40 08 01 00 00 00 	mov    DWORD PTR [eax+0x8],0x1
								pr_ct--;
    105c:	83 6d 20 01          	sub    DWORD PTR [ebp+0x20],0x1
								(*n_pr)++;
    1060:	8b 45 24             	mov    eax,DWORD PTR [ebp+0x24]
    1063:	8b 00                	mov    eax,DWORD PTR [eax]
    1065:	8d 50 01             	lea    edx,[eax+0x1]
    1068:	8b 45 24             	mov    eax,DWORD PTR [ebp+0x24]
    106b:	89 10                	mov    DWORD PTR [eax],edx
								pr++;
    106d:	83 45 1c 0c          	add    DWORD PTR [ebp+0x1c],0xc
						rv++;
    1071:	83 45 f0 01          	add    DWORD PTR [ebp-0x10],0x1
						pg_ct--;
    1075:	83 6d 18 01          	sub    DWORD PTR [ebp+0x18],0x1
						(*bsir)++;
    1079:	8b 45 28             	mov    eax,DWORD PTR [ebp+0x28]
    107c:	8b 00                	mov    eax,DWORD PTR [eax]
    107e:	8d 50 01             	lea    edx,[eax+0x1]
    1081:	8b 45 28             	mov    eax,DWORD PTR [ebp+0x28]
    1084:	89 10                	mov    DWORD PTR [eax],edx
						if (!pg_ct)
    1086:	83 7d 18 00          	cmp    DWORD PTR [ebp+0x18],0x0
    108a:	75 11                	jne    109d <mm_pmue_get_range+0x271>
								break;
    108c:	eb 20                	jmp    10ae <mm_pmue_get_range+0x282>

carry:
				(*bsir)++;
    108e:	8b 45 28             	mov    eax,DWORD PTR [ebp+0x28]
    1091:	8b 00                	mov    eax,DWORD PTR [eax]
    1093:	8d 50 01             	lea    edx,[eax+0x1]
    1096:	8b 45 28             	mov    eax,DWORD PTR [ebp+0x28]
    1099:	89 10                	mov    DWORD PTR [eax],edx
    109b:	eb 01                	jmp    109e <mm_pmue_get_range+0x272>
				continue;
    109d:	90                   	nop
		for (uint32_t i = b; i <= e; i++) {
    109e:	83 45 ec 01          	add    DWORD PTR [ebp-0x14],0x1
    10a2:	8b 45 ec             	mov    eax,DWORD PTR [ebp-0x14]
    10a5:	39 45 10             	cmp    DWORD PTR [ebp+0x10],eax
    10a8:	0f 83 1d fe ff ff    	jae    ecb <mm_pmue_get_range+0x9f>
		}

		return rv;
    10ae:	8b 45 f0             	mov    eax,DWORD PTR [ebp-0x10]
}
    10b1:	8b 5d fc             	mov    ebx,DWORD PTR [ebp-0x4]
    10b4:	c9                   	leave
    10b5:	c3                   	ret

000010b6 <mm_rcpe_get_range>:

uint32_t mm_rcpe_get_range(struct pmue* p, uint32_t b, uint32_t e, uint32_t lvl,
				uint32_t pg_ct, struct page_range* pr, uint32_t pr_ct,
				uint32_t* n_pr, uint32_t* bfir, uint64_t base)
{
    10b6:	55                   	push   ebp
    10b7:	89 e5                	mov    ebp,esp
    10b9:	53                   	push   ebx
    10ba:	83 ec 44             	sub    esp,0x44
    10bd:	8b 45 2c             	mov    eax,DWORD PTR [ebp+0x2c]
    10c0:	89 45 c0             	mov    DWORD PTR [ebp-0x40],eax
    10c3:	8b 45 30             	mov    eax,DWORD PTR [ebp+0x30]
    10c6:	89 45 c4             	mov    DWORD PTR [ebp-0x3c],eax
		uint32_t* bitfield, rv = 0;
    10c9:	c7 45 f0 00 00 00 00 	mov    DWORD PTR [ebp-0x10],0x0

		/* set the reference */
		switch (lvl) {
    10d0:	83 7d 14 07          	cmp    DWORD PTR [ebp+0x14],0x7
    10d4:	74 14                	je     10ea <mm_rcpe_get_range+0x34>
    10d6:	83 7d 14 07          	cmp    DWORD PTR [ebp+0x14],0x7
    10da:	77 32                	ja     110e <mm_rcpe_get_range+0x58>
    10dc:	83 7d 14 00          	cmp    DWORD PTR [ebp+0x14],0x0
    10e0:	74 22                	je     1104 <mm_rcpe_get_range+0x4e>
    10e2:	83 7d 14 02          	cmp    DWORD PTR [ebp+0x14],0x2
    10e6:	74 0f                	je     10f7 <mm_rcpe_get_range+0x41>
    10e8:	eb 24                	jmp    110e <mm_rcpe_get_range+0x58>
				case 7:
						bitfield = &p->lvl7;
    10ea:	8b 45 08             	mov    eax,DWORD PTR [ebp+0x8]
    10ed:	05 f8 03 00 00       	add    eax,0x3f8
    10f2:	89 45 f4             	mov    DWORD PTR [ebp-0xc],eax
						break;
    10f5:	eb 19                	jmp    1110 <mm_rcpe_get_range+0x5a>
				case 2:
						bitfield = p->lvl2;
    10f7:	8b 45 08             	mov    eax,DWORD PTR [ebp+0x8]
    10fa:	05 00 03 00 00       	add    eax,0x300
    10ff:	89 45 f4             	mov    DWORD PTR [ebp-0xc],eax
						break;
    1102:	eb 0c                	jmp    1110 <mm_rcpe_get_range+0x5a>
				case 0:
						bitfield = p->lvl0;
    1104:	8b 45 08             	mov    eax,DWORD PTR [ebp+0x8]
    1107:	89 45 f4             	mov    DWORD PTR [ebp-0xc],eax
						break;
    110a:	eb 04                	jmp    1110 <mm_rcpe_get_range+0x5a>
    110c:	eb 00                	jmp    110e <mm_rcpe_get_range+0x58>
				default:
						while (1);
    110e:	eb fc                	jmp    110c <mm_rcpe_get_range+0x56>
						break;
		}

		/* now do the bt trick */
		for (uint32_t i = b; i <= e; i++) {
    1110:	8b 45 0c             	mov    eax,DWORD PTR [ebp+0xc]
    1113:	89 45 ec             	mov    DWORD PTR [ebp-0x14],eax
    1116:	e9 18 02 00 00       	jmp    1333 <mm_rcpe_get_range+0x27d>
				/* test each bit */
				asm goto("bt %0, %1\n"
    111b:	8b 45 ec             	mov    eax,DWORD PTR [ebp-0x14]
    111e:	8b 55 f4             	mov    edx,DWORD PTR [ebp-0xc]
    1121:	0f a3 02             	bt     DWORD PTR [edx],eax
    1124:	0f 83 f5 01 00 00    	jae    131f <mm_rcpe_get_range+0x269>
						 "jnc %l2\n"
						 : : "r" (i), "m" (*bitfield) : "cc" : nocarry);

				/* we've got a reclaimable entry at i */
				if (lvl > 0) {
    112a:	83 7d 14 00          	cmp    DWORD PTR [ebp+0x14],0x0
    112e:	0f 84 e4 00 00 00    	je     1218 <mm_rcpe_get_range+0x162>
						uint32_t rv2, prr = *n_pr, bf = 0, mul;
    1134:	8b 45 24             	mov    eax,DWORD PTR [ebp+0x24]
    1137:	8b 00                	mov    eax,DWORD PTR [eax]
    1139:	89 45 d4             	mov    DWORD PTR [ebp-0x2c],eax
    113c:	c7 45 c8 00 00 00 00 	mov    DWORD PTR [ebp-0x38],0x0
						mul = (lvl == 2) ? 4 : 32;
    1143:	83 7d 14 02          	cmp    DWORD PTR [ebp+0x14],0x2
    1147:	75 07                	jne    1150 <mm_rcpe_get_range+0x9a>
    1149:	b8 04 00 00 00       	mov    eax,0x4
    114e:	eb 05                	jmp    1155 <mm_rcpe_get_range+0x9f>
    1150:	b8 20 00 00 00       	mov    eax,0x20
    1155:	89 45 d0             	mov    DWORD PTR [ebp-0x30],eax
						/* go deeper */
						rv2 = mm_rcpe_get_range(p, i * mul, (i + 1) * mul - 1,
    1158:	83 7d 14 02          	cmp    DWORD PTR [ebp+0x14],0x2
    115c:	75 07                	jne    1165 <mm_rcpe_get_range+0xaf>
    115e:	bb 00 00 00 00       	mov    ebx,0x0
    1163:	eb 05                	jmp    116a <mm_rcpe_get_range+0xb4>
    1165:	bb 02 00 00 00       	mov    ebx,0x2
    116a:	8b 45 ec             	mov    eax,DWORD PTR [ebp-0x14]
    116d:	83 c0 01             	add    eax,0x1
    1170:	0f af 45 d0          	imul   eax,DWORD PTR [ebp-0x30]
    1174:	8d 48 ff             	lea    ecx,[eax-0x1]
    1177:	8b 45 ec             	mov    eax,DWORD PTR [ebp-0x14]
    117a:	0f af 45 d0          	imul   eax,DWORD PTR [ebp-0x30]
    117e:	83 ec 04             	sub    esp,0x4
    1181:	ff 75 c4             	push   DWORD PTR [ebp-0x3c]
    1184:	ff 75 c0             	push   DWORD PTR [ebp-0x40]
    1187:	8d 55 c8             	lea    edx,[ebp-0x38]
    118a:	52                   	push   edx
    118b:	ff 75 24             	push   DWORD PTR [ebp+0x24]
    118e:	ff 75 20             	push   DWORD PTR [ebp+0x20]
    1191:	ff 75 1c             	push   DWORD PTR [ebp+0x1c]
    1194:	ff 75 18             	push   DWORD PTR [ebp+0x18]
    1197:	53                   	push   ebx
    1198:	51                   	push   ecx
    1199:	50                   	push   eax
    119a:	ff 75 08             	push   DWORD PTR [ebp+0x8]
    119d:	e8 fc ff ff ff       	call   119e <mm_rcpe_get_range+0xe8>
    11a2:	83 c4 30             	add    esp,0x30
    11a5:	89 45 cc             	mov    DWORD PTR [ebp-0x34],eax
								(lvl == 2) ? 0 : 2, pg_ct, pr, pr_ct, n_pr, &bf, base);
						/* set counts */
						rv += rv2;
    11a8:	8b 45 cc             	mov    eax,DWORD PTR [ebp-0x34]
    11ab:	01 45 f0             	add    DWORD PTR [ebp-0x10],eax
						pg_ct -= rv2;
    11ae:	8b 45 cc             	mov    eax,DWORD PTR [ebp-0x34]
    11b1:	29 45 18             	sub    DWORD PTR [ebp+0x18],eax
						pr += *n_pr - prr;
    11b4:	8b 45 24             	mov    eax,DWORD PTR [ebp+0x24]
    11b7:	8b 00                	mov    eax,DWORD PTR [eax]
    11b9:	2b 45 d4             	sub    eax,DWORD PTR [ebp-0x2c]
    11bc:	89 c2                	mov    edx,eax
    11be:	89 d0                	mov    eax,edx
    11c0:	01 c0                	add    eax,eax
    11c2:	01 d0                	add    eax,edx
    11c4:	c1 e0 02             	shl    eax,0x2
    11c7:	01 45 1c             	add    DWORD PTR [ebp+0x1c],eax
						pr_ct -= *n_pr - prr;
    11ca:	8b 45 24             	mov    eax,DWORD PTR [ebp+0x24]
    11cd:	8b 00                	mov    eax,DWORD PTR [eax]
    11cf:	8b 55 d4             	mov    edx,DWORD PTR [ebp-0x2c]
    11d2:	29 c2                	sub    edx,eax
    11d4:	01 55 20             	add    DWORD PTR [ebp+0x20],edx
						/* update by checking bits free in range */
						if (bf == mul) {
    11d7:	8b 45 c8             	mov    eax,DWORD PTR [ebp-0x38]
    11da:	39 45 d0             	cmp    DWORD PTR [ebp-0x30],eax
    11dd:	75 16                	jne    11f5 <mm_rcpe_get_range+0x13f>
								asm("btc %0, %1\n" : : "r" (i), "m" (*bitfield) : "cc");
    11df:	8b 45 ec             	mov    eax,DWORD PTR [ebp-0x14]
    11e2:	8b 55 f4             	mov    edx,DWORD PTR [ebp-0xc]
    11e5:	0f bb 02             	btc    DWORD PTR [edx],eax
								(*bfir)++;
    11e8:	8b 45 28             	mov    eax,DWORD PTR [ebp+0x28]
    11eb:	8b 00                	mov    eax,DWORD PTR [eax]
    11ed:	8d 50 01             	lea    edx,[eax+0x1]
    11f0:	8b 45 28             	mov    eax,DWORD PTR [ebp+0x28]
    11f3:	89 10                	mov    DWORD PTR [eax],edx
						}

						/* and quit if done */
						if (!pg_ct || (!pr_ct && !rv2))
    11f5:	83 7d 18 00          	cmp    DWORD PTR [ebp+0x18],0x0
    11f9:	0f 84 40 01 00 00    	je     133f <mm_rcpe_get_range+0x289>
    11ff:	83 7d 20 00          	cmp    DWORD PTR [ebp+0x20],0x0
    1203:	0f 85 25 01 00 00    	jne    132e <mm_rcpe_get_range+0x278>
    1209:	83 7d cc 00          	cmp    DWORD PTR [ebp-0x34],0x0
    120d:	0f 84 2c 01 00 00    	je     133f <mm_rcpe_get_range+0x289>
						bzero((void*)(size_t)b, 4096);
						/* check for done */
						if (!pg_ct)
								break;
				}
				continue;
    1213:	e9 16 01 00 00       	jmp    132e <mm_rcpe_get_range+0x278>
						uint64_t b = base + i * 4096, bp = 1;
    1218:	8b 45 ec             	mov    eax,DWORD PTR [ebp-0x14]
    121b:	c1 e0 0c             	shl    eax,0xc
    121e:	89 c1                	mov    ecx,eax
    1220:	bb 00 00 00 00       	mov    ebx,0x0
    1225:	8b 45 c0             	mov    eax,DWORD PTR [ebp-0x40]
    1228:	8b 55 c4             	mov    edx,DWORD PTR [ebp-0x3c]
    122b:	01 c8                	add    eax,ecx
    122d:	11 da                	adc    edx,ebx
    122f:	89 45 d8             	mov    DWORD PTR [ebp-0x28],eax
    1232:	89 55 dc             	mov    DWORD PTR [ebp-0x24],edx
    1235:	c7 45 e0 01 00 00 00 	mov    DWORD PTR [ebp-0x20],0x1
    123c:	c7 45 e4 00 00 00 00 	mov    DWORD PTR [ebp-0x1c],0x0
						asm("btc %0, %1\n" : : "r" (i), "m" (*bitfield) : "cc");
    1243:	8b 45 ec             	mov    eax,DWORD PTR [ebp-0x14]
    1246:	8b 55 f4             	mov    edx,DWORD PTR [ebp-0xc]
    1249:	0f bb 02             	btc    DWORD PTR [edx],eax
						if (*n_pr)
    124c:	8b 45 24             	mov    eax,DWORD PTR [ebp+0x24]
    124f:	8b 00                	mov    eax,DWORD PTR [eax]
    1251:	85 c0                	test   eax,eax
    1253:	74 26                	je     127b <mm_rcpe_get_range+0x1c5>
								bp = pr[-1].base + 4096 * pr[-1].count;
    1255:	8b 45 1c             	mov    eax,DWORD PTR [ebp+0x1c]
    1258:	83 e8 0c             	sub    eax,0xc
    125b:	8b 50 04             	mov    edx,DWORD PTR [eax+0x4]
    125e:	8b 00                	mov    eax,DWORD PTR [eax]
    1260:	8b 4d 1c             	mov    ecx,DWORD PTR [ebp+0x1c]
    1263:	83 e9 0c             	sub    ecx,0xc
    1266:	8b 49 08             	mov    ecx,DWORD PTR [ecx+0x8]
    1269:	c1 e1 0c             	shl    ecx,0xc
    126c:	bb 00 00 00 00       	mov    ebx,0x0
    1271:	01 c8                	add    eax,ecx
    1273:	11 da                	adc    edx,ebx
    1275:	89 45 e0             	mov    DWORD PTR [ebp-0x20],eax
    1278:	89 55 e4             	mov    DWORD PTR [ebp-0x1c],edx
						if (b == bp)
    127b:	8b 45 d8             	mov    eax,DWORD PTR [ebp-0x28]
    127e:	8b 55 dc             	mov    edx,DWORD PTR [ebp-0x24]
    1281:	89 c1                	mov    ecx,eax
    1283:	89 c8                	mov    eax,ecx
    1285:	33 45 e0             	xor    eax,DWORD PTR [ebp-0x20]
    1288:	33 55 e4             	xor    edx,DWORD PTR [ebp-0x1c]
    128b:	09 d0                	or     eax,edx
    128d:	75 11                	jne    12a0 <mm_rcpe_get_range+0x1ea>
								pr[-1].count++;
    128f:	8b 45 1c             	mov    eax,DWORD PTR [ebp+0x1c]
    1292:	83 e8 0c             	sub    eax,0xc
    1295:	8b 50 08             	mov    edx,DWORD PTR [eax+0x8]
    1298:	83 c2 01             	add    edx,0x1
    129b:	89 50 08             	mov    DWORD PTR [eax+0x8],edx
    129e:	eb 4e                	jmp    12ee <mm_rcpe_get_range+0x238>
								if (!pr_ct) { /* rollback */
    12a0:	83 7d 20 00          	cmp    DWORD PTR [ebp+0x20],0x0
    12a4:	75 1b                	jne    12c1 <mm_rcpe_get_range+0x20b>
										asm("bts %0, %1\n" : : "r" (i), "m" (*bitfield) : "cc");
    12a6:	8b 45 ec             	mov    eax,DWORD PTR [ebp-0x14]
    12a9:	8b 55 f4             	mov    edx,DWORD PTR [ebp-0xc]
    12ac:	0f ab 02             	bts    DWORD PTR [edx],eax
										putstr("rb");
    12af:	83 ec 0c             	sub    esp,0xc
    12b2:	68 10 00 00 00       	push   0x10
    12b7:	e8 fc ff ff ff       	call   12b8 <mm_rcpe_get_range+0x202>
    12bc:	83 c4 10             	add    esp,0x10
										break;
    12bf:	eb 7e                	jmp    133f <mm_rcpe_get_range+0x289>
								pr->base = b;
    12c1:	8b 4d 1c             	mov    ecx,DWORD PTR [ebp+0x1c]
    12c4:	8b 45 d8             	mov    eax,DWORD PTR [ebp-0x28]
    12c7:	8b 55 dc             	mov    edx,DWORD PTR [ebp-0x24]
    12ca:	89 01                	mov    DWORD PTR [ecx],eax
    12cc:	89 51 04             	mov    DWORD PTR [ecx+0x4],edx
								pr->count = 1;
    12cf:	8b 45 1c             	mov    eax,DWORD PTR [ebp+0x1c]
    12d2:	c7 40 08 01 00 00 00 	mov    DWORD PTR [eax+0x8],0x1
								pr_ct--;
    12d9:	83 6d 20 01          	sub    DWORD PTR [ebp+0x20],0x1
								(*n_pr)++;
    12dd:	8b 45 24             	mov    eax,DWORD PTR [ebp+0x24]
    12e0:	8b 00                	mov    eax,DWORD PTR [eax]
    12e2:	8d 50 01             	lea    edx,[eax+0x1]
    12e5:	8b 45 24             	mov    eax,DWORD PTR [ebp+0x24]
    12e8:	89 10                	mov    DWORD PTR [eax],edx
								pr++;
    12ea:	83 45 1c 0c          	add    DWORD PTR [ebp+0x1c],0xc
						rv++;
    12ee:	83 45 f0 01          	add    DWORD PTR [ebp-0x10],0x1
						pg_ct--;
    12f2:	83 6d 18 01          	sub    DWORD PTR [ebp+0x18],0x1
						(*bfir)++;
    12f6:	8b 45 28             	mov    eax,DWORD PTR [ebp+0x28]
    12f9:	8b 00                	mov    eax,DWORD PTR [eax]
    12fb:	8d 50 01             	lea    edx,[eax+0x1]
    12fe:	8b 45 28             	mov    eax,DWORD PTR [ebp+0x28]
    1301:	89 10                	mov    DWORD PTR [eax],edx
						bzero((void*)(size_t)b, 4096);
    1303:	8b 45 d8             	mov    eax,DWORD PTR [ebp-0x28]
    1306:	83 ec 08             	sub    esp,0x8
    1309:	68 00 10 00 00       	push   0x1000
    130e:	50                   	push   eax
    130f:	e8 fc ff ff ff       	call   1310 <mm_rcpe_get_range+0x25a>
    1314:	83 c4 10             	add    esp,0x10
						if (!pg_ct)
    1317:	83 7d 18 00          	cmp    DWORD PTR [ebp+0x18],0x0
    131b:	75 11                	jne    132e <mm_rcpe_get_range+0x278>
								break;
    131d:	eb 20                	jmp    133f <mm_rcpe_get_range+0x289>

nocarry:
				(*bfir)++;
    131f:	8b 45 28             	mov    eax,DWORD PTR [ebp+0x28]
    1322:	8b 00                	mov    eax,DWORD PTR [eax]
    1324:	8d 50 01             	lea    edx,[eax+0x1]
    1327:	8b 45 28             	mov    eax,DWORD PTR [ebp+0x28]
    132a:	89 10                	mov    DWORD PTR [eax],edx
    132c:	eb 01                	jmp    132f <mm_rcpe_get_range+0x279>
				continue;
    132e:	90                   	nop
		for (uint32_t i = b; i <= e; i++) {
    132f:	83 45 ec 01          	add    DWORD PTR [ebp-0x14],0x1
    1333:	8b 45 ec             	mov    eax,DWORD PTR [ebp-0x14]
    1336:	39 45 10             	cmp    DWORD PTR [ebp+0x10],eax
    1339:	0f 83 dc fd ff ff    	jae    111b <mm_rcpe_get_range+0x65>
		}

		return rv;
    133f:	8b 45 f0             	mov    eax,DWORD PTR [ebp-0x10]
}
    1342:	8b 5d fc             	mov    ebx,DWORD PTR [ebp-0x4]
    1345:	c9                   	leave
    1346:	c3                   	ret

00001347 <mm_fmrc_get>:

/* is used to really set entries in a pmu/rcp */
uint32_t mm_fmrc_get(struct pmu* p, uint32_t idx, uint32_t pg_ct, int free,
				struct page_range* pr, uint32_t pr_ct, uint32_t* n_pr, uint64_t base)
{
    1347:	55                   	push   ebp
    1348:	89 e5                	mov    ebp,esp
    134a:	83 ec 48             	sub    esp,0x48
    134d:	8b 45 24             	mov    eax,DWORD PTR [ebp+0x24]
    1350:	89 45 c0             	mov    DWORD PTR [ebp-0x40],eax
    1353:	8b 45 28             	mov    eax,DWORD PTR [ebp+0x28]
    1356:	89 45 c4             	mov    DWORD PTR [ebp-0x3c],eax
		size_t i; uint32_t msk = 0x00000003, rv = 0;
    1359:	c7 45 f0 03 00 00 00 	mov    DWORD PTR [ebp-0x10],0x3
    1360:	c7 45 ec 00 00 00 00 	mov    DWORD PTR [ebp-0x14],0x0
		struct pmue* e = &p->entries[idx];
    1367:	8b 45 0c             	mov    eax,DWORD PTR [ebp+0xc]
    136a:	69 c0 fc 03 00 00    	imul   eax,eax,0x3fc
    1370:	8d 50 10             	lea    edx,[eax+0x10]
    1373:	8b 45 08             	mov    eax,DWORD PTR [ebp+0x8]
    1376:	01 d0                	add    eax,edx
    1378:	89 45 e4             	mov    DWORD PTR [ebp-0x1c],eax
		/* lock is 2 lvl7 bits wide (256 pages) so use it sparingly */

		/* first skip all full/empty lvl7 ranges (2 at a time) */
		uint32_t prc = 0;
    137b:	c7 45 d8 00 00 00 00 	mov    DWORD PTR [ebp-0x28],0x0
		for (i = 0; i < 16; i++) {
    1382:	c7 45 f4 00 00 00 00 	mov    DWORD PTR [ebp-0xc],0x0
    1389:	e9 5e 01 00 00       	jmp    14ec <mm_fmrc_get+0x1a5>
				uint8_t bt = ((e->lvl7 & msk) >> 2 * i);
    138e:	8b 45 e4             	mov    eax,DWORD PTR [ebp-0x1c]
    1391:	8b 80 f8 03 00 00    	mov    eax,DWORD PTR [eax+0x3f8]
    1397:	23 45 f0             	and    eax,DWORD PTR [ebp-0x10]
    139a:	89 c2                	mov    edx,eax
    139c:	8b 45 f4             	mov    eax,DWORD PTR [ebp-0xc]
    139f:	01 c0                	add    eax,eax
    13a1:	89 c1                	mov    ecx,eax
    13a3:	d3 ea                	shr    edx,cl
    13a5:	89 d0                	mov    eax,edx
    13a7:	88 45 e3             	mov    BYTE PTR [ebp-0x1d],al
				if (free ? (bt != 3) : (bt)) { /* all set/unset */
    13aa:	83 7d 14 00          	cmp    DWORD PTR [ebp+0x14],0x0
    13ae:	74 09                	je     13b9 <mm_fmrc_get+0x72>
    13b0:	80 7d e3 03          	cmp    BYTE PTR [ebp-0x1d],0x3
    13b4:	0f 95 c0             	setne  al
    13b7:	eb 07                	jmp    13c0 <mm_fmrc_get+0x79>
    13b9:	80 7d e3 00          	cmp    BYTE PTR [ebp-0x1d],0x0
    13bd:	0f 95 c0             	setne  al
    13c0:	84 c0                	test   al,al
    13c2:	0f 84 1b 01 00 00    	je     14e3 <mm_fmrc_get+0x19c>
						uint32_t rv2 = 0, pcc = prc, bsir = 0;
    13c8:	c7 45 e8 00 00 00 00 	mov    DWORD PTR [ebp-0x18],0x0
    13cf:	8b 45 d8             	mov    eax,DWORD PTR [ebp-0x28]
    13d2:	89 45 dc             	mov    DWORD PTR [ebp-0x24],eax
    13d5:	c7 45 d4 00 00 00 00 	mov    DWORD PTR [ebp-0x2c],0x0
						/* some bits set: try to lock */
						asm goto("lock bts %0, %1\n"
							"jc %l2\n" : : "r" (idx * 16 + 2 * i),
    13dc:	8b 45 0c             	mov    eax,DWORD PTR [ebp+0xc]
    13df:	8d 14 c5 00 00 00 00 	lea    edx,[eax*8+0x0]
    13e6:	8b 45 f4             	mov    eax,DWORD PTR [ebp-0xc]
    13e9:	01 d0                	add    eax,edx
    13eb:	8d 14 00             	lea    edx,[eax+eax*1]
						asm goto("lock bts %0, %1\n"
    13ee:	8b 45 08             	mov    eax,DWORD PTR [ebp+0x8]
    13f1:	f0 0f ab 10          	lock bts DWORD PTR [eax],edx
    13f5:	0f 82 e9 00 00 00    	jb     14e4 <mm_fmrc_get+0x19d>
							"m" (*p->locks) : "cc" : carry);

						/* we hold the lock (else jump to carry) */
						if (free)
    13fb:	83 7d 14 00          	cmp    DWORD PTR [ebp+0x14],0x0
    13ff:	74 3c                	je     143d <mm_fmrc_get+0xf6>
								rv2 = mm_pmue_get_range(e, i * 2, i * 2 + 1, 7, pg_ct,
    1401:	8b 45 f4             	mov    eax,DWORD PTR [ebp-0xc]
    1404:	01 c0                	add    eax,eax
    1406:	8d 48 01             	lea    ecx,[eax+0x1]
    1409:	8b 45 f4             	mov    eax,DWORD PTR [ebp-0xc]
    140c:	8d 14 00             	lea    edx,[eax+eax*1]
    140f:	83 ec 04             	sub    esp,0x4
    1412:	ff 75 c4             	push   DWORD PTR [ebp-0x3c]
    1415:	ff 75 c0             	push   DWORD PTR [ebp-0x40]
    1418:	8d 45 d4             	lea    eax,[ebp-0x2c]
    141b:	50                   	push   eax
    141c:	8d 45 d8             	lea    eax,[ebp-0x28]
    141f:	50                   	push   eax
    1420:	ff 75 1c             	push   DWORD PTR [ebp+0x1c]
    1423:	ff 75 18             	push   DWORD PTR [ebp+0x18]
    1426:	ff 75 10             	push   DWORD PTR [ebp+0x10]
    1429:	6a 07                	push   0x7
    142b:	51                   	push   ecx
    142c:	52                   	push   edx
    142d:	ff 75 e4             	push   DWORD PTR [ebp-0x1c]
    1430:	e8 fc ff ff ff       	call   1431 <mm_fmrc_get+0xea>
    1435:	83 c4 30             	add    esp,0x30
    1438:	89 45 e8             	mov    DWORD PTR [ebp-0x18],eax
    143b:	eb 3a                	jmp    1477 <mm_fmrc_get+0x130>
										pr, pr_ct, &prc, &bsir, base);
						else
								rv2 = mm_rcpe_get_range(e, i * 2, i * 2 + 1, 7, pg_ct,
    143d:	8b 45 f4             	mov    eax,DWORD PTR [ebp-0xc]
    1440:	01 c0                	add    eax,eax
    1442:	8d 48 01             	lea    ecx,[eax+0x1]
    1445:	8b 45 f4             	mov    eax,DWORD PTR [ebp-0xc]
    1448:	8d 14 00             	lea    edx,[eax+eax*1]
    144b:	83 ec 04             	sub    esp,0x4
    144e:	ff 75 c4             	push   DWORD PTR [ebp-0x3c]
    1451:	ff 75 c0             	push   DWORD PTR [ebp-0x40]
    1454:	8d 45 d4             	lea    eax,[ebp-0x2c]
    1457:	50                   	push   eax
    1458:	8d 45 d8             	lea    eax,[ebp-0x28]
    145b:	50                   	push   eax
    145c:	ff 75 1c             	push   DWORD PTR [ebp+0x1c]
    145f:	ff 75 18             	push   DWORD PTR [ebp+0x18]
    1462:	ff 75 10             	push   DWORD PTR [ebp+0x10]
    1465:	6a 07                	push   0x7
    1467:	51                   	push   ecx
    1468:	52                   	push   edx
    1469:	ff 75 e4             	push   DWORD PTR [ebp-0x1c]
    146c:	e8 fc ff ff ff       	call   146d <mm_fmrc_get+0x126>
    1471:	83 c4 30             	add    esp,0x30
    1474:	89 45 e8             	mov    DWORD PTR [ebp-0x18],eax
										pr, pr_ct, &prc, &bsir, base);
						pr_ct -= prc - pcc;
    1477:	8b 45 d8             	mov    eax,DWORD PTR [ebp-0x28]
    147a:	8b 55 dc             	mov    edx,DWORD PTR [ebp-0x24]
    147d:	29 c2                	sub    edx,eax
    147f:	01 55 1c             	add    DWORD PTR [ebp+0x1c],edx
						pr += prc - pcc;
    1482:	8b 45 d8             	mov    eax,DWORD PTR [ebp-0x28]
    1485:	2b 45 dc             	sub    eax,DWORD PTR [ebp-0x24]
    1488:	89 c2                	mov    edx,eax
    148a:	89 d0                	mov    eax,edx
    148c:	01 c0                	add    eax,eax
    148e:	01 d0                	add    eax,edx
    1490:	c1 e0 02             	shl    eax,0x2
    1493:	01 45 18             	add    DWORD PTR [ebp+0x18],eax
						*n_pr += prc - pcc;
    1496:	8b 45 20             	mov    eax,DWORD PTR [ebp+0x20]
    1499:	8b 10                	mov    edx,DWORD PTR [eax]
    149b:	8b 45 d8             	mov    eax,DWORD PTR [ebp-0x28]
    149e:	2b 45 dc             	sub    eax,DWORD PTR [ebp-0x24]
    14a1:	01 c2                	add    edx,eax
    14a3:	8b 45 20             	mov    eax,DWORD PTR [ebp+0x20]
    14a6:	89 10                	mov    DWORD PTR [eax],edx
						rv += rv2;
    14a8:	8b 45 e8             	mov    eax,DWORD PTR [ebp-0x18]
    14ab:	01 45 ec             	add    DWORD PTR [ebp-0x14],eax
						pg_ct -= rv2;
    14ae:	8b 45 e8             	mov    eax,DWORD PTR [ebp-0x18]
    14b1:	29 45 10             	sub    DWORD PTR [ebp+0x10],eax

						/* release lock */
						asm("btr %0, %1\n" : : "r" (idx * 16 + 2 * i),
    14b4:	8b 45 0c             	mov    eax,DWORD PTR [ebp+0xc]
    14b7:	8d 14 c5 00 00 00 00 	lea    edx,[eax*8+0x0]
    14be:	8b 45 f4             	mov    eax,DWORD PTR [ebp-0xc]
    14c1:	01 d0                	add    eax,edx
    14c3:	8d 14 00             	lea    edx,[eax+eax*1]
    14c6:	8b 45 08             	mov    eax,DWORD PTR [ebp+0x8]
    14c9:	0f b3 10             	btr    DWORD PTR [eax],edx
							"m" (*p->locks) : "cc");

						if (!pg_ct || (!pr_ct && !rv2))
    14cc:	83 7d 10 00          	cmp    DWORD PTR [ebp+0x10],0x0
    14d0:	74 0c                	je     14de <mm_fmrc_get+0x197>
    14d2:	83 7d 1c 00          	cmp    DWORD PTR [ebp+0x1c],0x0
    14d6:	75 0c                	jne    14e4 <mm_fmrc_get+0x19d>
    14d8:	83 7d e8 00          	cmp    DWORD PTR [ebp-0x18],0x0
    14dc:	75 06                	jne    14e4 <mm_fmrc_get+0x19d>
								return rv;
    14de:	8b 45 ec             	mov    eax,DWORD PTR [ebp-0x14]
    14e1:	eb 16                	jmp    14f9 <mm_fmrc_get+0x1b2>
				}
carry:
    14e3:	90                   	nop
				/* advance */
				msk <<= 2;
    14e4:	c1 65 f0 02          	shl    DWORD PTR [ebp-0x10],0x2
		for (i = 0; i < 16; i++) {
    14e8:	83 45 f4 01          	add    DWORD PTR [ebp-0xc],0x1
    14ec:	83 7d f4 0f          	cmp    DWORD PTR [ebp-0xc],0xf
    14f0:	0f 86 98 fe ff ff    	jbe    138e <mm_fmrc_get+0x47>
		}

		return rv;
    14f6:	8b 45 ec             	mov    eax,DWORD PTR [ebp-0x14]
}
    14f9:	c9                   	leave
    14fa:	c3                   	ret

000014fb <mm_fmrc_alloc_pm>:

/* used for getting pages which are marked as free/reclaimable */
uint32_t mm_fmrc_alloc_pm(struct fme* fm, uint32_t pg_ct, int free,
				struct page_range* pr, uint32_t pr_ct, uint32_t* n_pr)
{
    14fb:	55                   	push   ebp
    14fc:	89 e5                	mov    ebp,esp
    14fe:	53                   	push   ebx
    14ff:	83 ec 34             	sub    esp,0x34
		uint32_t rv = 0; uint64_t base = fm->base;
    1502:	c7 45 f4 00 00 00 00 	mov    DWORD PTR [ebp-0xc],0x0
    1509:	8b 45 08             	mov    eax,DWORD PTR [ebp+0x8]
    150c:	8b 50 04             	mov    edx,DWORD PTR [eax+0x4]
    150f:	8b 00                	mov    eax,DWORD PTR [eax]
    1511:	89 45 e8             	mov    DWORD PTR [ebp-0x18],eax
    1514:	89 55 ec             	mov    DWORD PTR [ebp-0x14],edx
		size_t i, j; uint64_t mem = (free ? fm->pmu : fm->rcp);
    1517:	83 7d 10 00          	cmp    DWORD PTR [ebp+0x10],0x0
    151b:	74 0b                	je     1528 <mm_fmrc_alloc_pm+0x2d>
    151d:	8b 45 08             	mov    eax,DWORD PTR [ebp+0x8]
    1520:	8b 50 2c             	mov    edx,DWORD PTR [eax+0x2c]
    1523:	8b 40 28             	mov    eax,DWORD PTR [eax+0x28]
    1526:	eb 09                	jmp    1531 <mm_fmrc_alloc_pm+0x36>
    1528:	8b 45 08             	mov    eax,DWORD PTR [ebp+0x8]
    152b:	8b 50 34             	mov    edx,DWORD PTR [eax+0x34]
    152e:	8b 40 30             	mov    eax,DWORD PTR [eax+0x30]
    1531:	89 45 d8             	mov    DWORD PTR [ebp-0x28],eax
    1534:	89 55 dc             	mov    DWORD PTR [ebp-0x24],edx

		for (i = 0; i < fm->ec; i++) {
    1537:	c7 45 e4 00 00 00 00 	mov    DWORD PTR [ebp-0x1c],0x0
    153e:	e9 37 01 00 00       	jmp    167a <mm_fmrc_alloc_pm+0x17f>
				struct pmu* p = (void*)(size_t)mem;
    1543:	8b 45 d8             	mov    eax,DWORD PTR [ebp-0x28]
    1546:	89 45 d4             	mov    DWORD PTR [ebp-0x2c],eax
				/* skip if above limit */
				if (mem + 4096 > 0x100000000)
    1549:	8b 45 d8             	mov    eax,DWORD PTR [ebp-0x28]
    154c:	8b 55 dc             	mov    edx,DWORD PTR [ebp-0x24]
    154f:	05 00 10 00 00       	add    eax,0x1000
    1554:	83 d2 00             	adc    edx,0x0
    1557:	bb 00 00 00 00       	mov    ebx,0x0
    155c:	b9 01 00 00 00       	mov    ecx,0x1
    1561:	39 c3                	cmp    ebx,eax
    1563:	19 d1                	sbb    ecx,edx
    1565:	0f 82 2c 01 00 00    	jb     1697 <mm_fmrc_alloc_pm+0x19c>
						break;

				/* operate on pmu/rcp */
				if (p->free_ct[0] == 0xffff) {
    156b:	8b 45 d4             	mov    eax,DWORD PTR [ebp-0x2c]
    156e:	0f b7 40 08          	movzx  eax,WORD PTR [eax+0x8]
    1572:	66 83 f8 ff          	cmp    ax,0xffff
    1576:	75 2d                	jne    15a5 <mm_fmrc_alloc_pm+0xaa>
						if (free) {
    1578:	83 7d 10 00          	cmp    DWORD PTR [ebp+0x10],0x0
    157c:	74 14                	je     1592 <mm_fmrc_alloc_pm+0x97>
								if (mm_init_pmu(p))
    157e:	ff 75 d4             	push   DWORD PTR [ebp-0x2c]
    1581:	e8 fc ff ff ff       	call   1582 <mm_fmrc_alloc_pm+0x87>
    1586:	83 c4 04             	add    esp,0x4
    1589:	85 c0                	test   eax,eax
    158b:	74 18                	je     15a5 <mm_fmrc_alloc_pm+0xaa>
										continue; /* if locked */
    158d:	e9 e4 00 00 00       	jmp    1676 <mm_fmrc_alloc_pm+0x17b>
						} else {
								if (mm_init_rcp(p))
    1592:	ff 75 d4             	push   DWORD PTR [ebp-0x2c]
    1595:	e8 fc ff ff ff       	call   1596 <mm_fmrc_alloc_pm+0x9b>
    159a:	83 c4 04             	add    esp,0x4
    159d:	85 c0                	test   eax,eax
    159f:	0f 85 d0 00 00 00    	jne    1675 <mm_fmrc_alloc_pm+0x17a>
										continue; /* if locked */
						}
				}

				/* check for free/reclaimable counts */
				for (j = 0; j < 4; j++) {
    15a5:	c7 45 e0 00 00 00 00 	mov    DWORD PTR [ebp-0x20],0x0
    15ac:	e9 b8 00 00 00       	jmp    1669 <mm_fmrc_alloc_pm+0x16e>
						if (p->free_ct[j] > 0) {
    15b1:	8b 45 d4             	mov    eax,DWORD PTR [ebp-0x2c]
    15b4:	8b 55 e0             	mov    edx,DWORD PTR [ebp-0x20]
    15b7:	0f b7 44 50 08       	movzx  eax,WORD PTR [eax+edx*2+0x8]
    15bc:	66 85 c0             	test   ax,ax
    15bf:	0f 84 95 00 00 00    	je     165a <mm_fmrc_alloc_pm+0x15f>
								uint32_t rv2, np = 0;
    15c5:	c7 45 cc 00 00 00 00 	mov    DWORD PTR [ebp-0x34],0x0
								/* operate on lock */
								rv2 = mm_fmrc_get(p, j, pg_ct, free, pr,
    15cc:	83 ec 0c             	sub    esp,0xc
    15cf:	ff 75 ec             	push   DWORD PTR [ebp-0x14]
    15d2:	ff 75 e8             	push   DWORD PTR [ebp-0x18]
    15d5:	8d 45 cc             	lea    eax,[ebp-0x34]
    15d8:	50                   	push   eax
    15d9:	ff 75 18             	push   DWORD PTR [ebp+0x18]
    15dc:	ff 75 14             	push   DWORD PTR [ebp+0x14]
    15df:	ff 75 10             	push   DWORD PTR [ebp+0x10]
    15e2:	ff 75 0c             	push   DWORD PTR [ebp+0xc]
    15e5:	ff 75 e0             	push   DWORD PTR [ebp-0x20]
    15e8:	ff 75 d4             	push   DWORD PTR [ebp-0x2c]
    15eb:	e8 fc ff ff ff       	call   15ec <mm_fmrc_alloc_pm+0xf1>
    15f0:	83 c4 30             	add    esp,0x30
    15f3:	89 45 d0             	mov    DWORD PTR [ebp-0x30],eax
												pr_ct, &np, base);

								*n_pr += np;
    15f6:	8b 45 1c             	mov    eax,DWORD PTR [ebp+0x1c]
    15f9:	8b 10                	mov    edx,DWORD PTR [eax]
    15fb:	8b 45 cc             	mov    eax,DWORD PTR [ebp-0x34]
    15fe:	01 c2                	add    edx,eax
    1600:	8b 45 1c             	mov    eax,DWORD PTR [ebp+0x1c]
    1603:	89 10                	mov    DWORD PTR [eax],edx
								pr_ct -= np;
    1605:	8b 45 cc             	mov    eax,DWORD PTR [ebp-0x34]
    1608:	29 45 18             	sub    DWORD PTR [ebp+0x18],eax
								pr += np;
    160b:	8b 55 cc             	mov    edx,DWORD PTR [ebp-0x34]
    160e:	89 d0                	mov    eax,edx
    1610:	01 c0                	add    eax,eax
    1612:	01 d0                	add    eax,edx
    1614:	c1 e0 02             	shl    eax,0x2
    1617:	01 45 14             	add    DWORD PTR [ebp+0x14],eax
								rv += rv2;
    161a:	8b 45 d0             	mov    eax,DWORD PTR [ebp-0x30]
    161d:	01 45 f4             	add    DWORD PTR [ebp-0xc],eax
								pg_ct -= rv2;
    1620:	8b 45 d0             	mov    eax,DWORD PTR [ebp-0x30]
    1623:	29 45 0c             	sub    DWORD PTR [ebp+0xc],eax
								/* update count */
								p->free_ct[j] -= rv2;
    1626:	8b 45 d4             	mov    eax,DWORD PTR [ebp-0x2c]
    1629:	8b 55 e0             	mov    edx,DWORD PTR [ebp-0x20]
    162c:	0f b7 44 50 08       	movzx  eax,WORD PTR [eax+edx*2+0x8]
    1631:	8b 55 d0             	mov    edx,DWORD PTR [ebp-0x30]
    1634:	29 d0                	sub    eax,edx
    1636:	89 c1                	mov    ecx,eax
    1638:	8b 45 d4             	mov    eax,DWORD PTR [ebp-0x2c]
    163b:	8b 55 e0             	mov    edx,DWORD PTR [ebp-0x20]
    163e:	66 89 4c 50 08       	mov    WORD PTR [eax+edx*2+0x8],cx
								/* exit if done or list exhausted (and no extension) */
								if (!pg_ct || (!pr_ct && !rv2))
    1643:	83 7d 0c 00          	cmp    DWORD PTR [ebp+0xc],0x0
    1647:	74 0c                	je     1655 <mm_fmrc_alloc_pm+0x15a>
    1649:	83 7d 18 00          	cmp    DWORD PTR [ebp+0x18],0x0
    164d:	75 0b                	jne    165a <mm_fmrc_alloc_pm+0x15f>
    164f:	83 7d d0 00          	cmp    DWORD PTR [ebp-0x30],0x0
    1653:	75 05                	jne    165a <mm_fmrc_alloc_pm+0x15f>
										return rv;
    1655:	8b 45 f4             	mov    eax,DWORD PTR [ebp-0xc]
    1658:	eb 41                	jmp    169b <mm_fmrc_alloc_pm+0x1a0>
						}

						/* advance base */
						base += 4096 * 4096;
    165a:	81 45 e8 00 00 00 01 	add    DWORD PTR [ebp-0x18],0x1000000
    1661:	83 55 ec 00          	adc    DWORD PTR [ebp-0x14],0x0
				for (j = 0; j < 4; j++) {
    1665:	83 45 e0 01          	add    DWORD PTR [ebp-0x20],0x1
    1669:	83 7d e0 03          	cmp    DWORD PTR [ebp-0x20],0x3
    166d:	0f 86 3e ff ff ff    	jbe    15b1 <mm_fmrc_alloc_pm+0xb6>
    1673:	eb 01                	jmp    1676 <mm_fmrc_alloc_pm+0x17b>
										continue; /* if locked */
    1675:	90                   	nop
		for (i = 0; i < fm->ec; i++) {
    1676:	83 45 e4 01          	add    DWORD PTR [ebp-0x1c],0x1
    167a:	8b 4d e4             	mov    ecx,DWORD PTR [ebp-0x1c]
    167d:	bb 00 00 00 00       	mov    ebx,0x0
    1682:	8b 45 08             	mov    eax,DWORD PTR [ebp+0x8]
    1685:	8b 50 24             	mov    edx,DWORD PTR [eax+0x24]
    1688:	8b 40 20             	mov    eax,DWORD PTR [eax+0x20]
    168b:	39 c1                	cmp    ecx,eax
    168d:	19 d3                	sbb    ebx,edx
    168f:	0f 82 ae fe ff ff    	jb     1543 <mm_fmrc_alloc_pm+0x48>
    1695:	eb 01                	jmp    1698 <mm_fmrc_alloc_pm+0x19d>
						break;
    1697:	90                   	nop
				}
		}

		return rv;
    1698:	8b 45 f4             	mov    eax,DWORD PTR [ebp-0xc]
}
    169b:	8b 5d fc             	mov    ebx,DWORD PTR [ebp-0x4]
    169e:	c9                   	leave
    169f:	c3                   	ret

000016a0 <mm_alloc_pm>:

uint32_t mm_alloc_pm(uint32_t pg_ct, struct page_range* pr, uint32_t pr_ct)
{
    16a0:	55                   	push   ebp
    16a1:	89 e5                	mov    ebp,esp
    16a3:	56                   	push   esi
    16a4:	53                   	push   ebx
    16a5:	83 ec 30             	sub    esp,0x30
		size_t i; uint32_t rv = 0, r2 = 0, pr_o = 0;
    16a8:	c7 45 f0 00 00 00 00 	mov    DWORD PTR [ebp-0x10],0x0
    16af:	c7 45 ec 00 00 00 00 	mov    DWORD PTR [ebp-0x14],0x0
    16b6:	c7 45 e0 00 00 00 00 	mov    DWORD PTR [ebp-0x20],0x0

retry:
		for (i = fm_begin; i < fm_ofs; i++) {
    16bd:	a1 1c 00 00 00       	mov    eax,ds:0x1c
    16c2:	89 45 f4             	mov    DWORD PTR [ebp-0xc],eax
    16c5:	e9 c1 01 00 00       	jmp    188b <mm_alloc_pm+0x1eb>
				/* skip if scrubbing is needed */
				if (!r2 && !fmm[i].free_pages)
    16ca:	83 7d ec 00          	cmp    DWORD PTR [ebp-0x14],0x0
    16ce:	75 1f                	jne    16ef <mm_alloc_pm+0x4f>
    16d0:	ba 00 40 02 00       	mov    edx,0x24000
    16d5:	8b 45 f4             	mov    eax,DWORD PTR [ebp-0xc]
    16d8:	6b c0 38             	imul   eax,eax,0x38
    16db:	01 d0                	add    eax,edx
    16dd:	8b 50 14             	mov    edx,DWORD PTR [eax+0x14]
    16e0:	8b 40 10             	mov    eax,DWORD PTR [eax+0x10]
    16e3:	89 c1                	mov    ecx,eax
    16e5:	89 c8                	mov    eax,ecx
    16e7:	09 d0                	or     eax,edx
    16e9:	0f 84 94 01 00 00    	je     1883 <mm_alloc_pm+0x1e3>
						continue;

				/* collect free pages */
				if (fmm[i].free_pages) {
    16ef:	ba 00 40 02 00       	mov    edx,0x24000
    16f4:	8b 45 f4             	mov    eax,DWORD PTR [ebp-0xc]
    16f7:	6b c0 38             	imul   eax,eax,0x38
    16fa:	01 d0                	add    eax,edx
    16fc:	8b 50 14             	mov    edx,DWORD PTR [eax+0x14]
    16ff:	8b 40 10             	mov    eax,DWORD PTR [eax+0x10]
    1702:	89 c1                	mov    ecx,eax
    1704:	89 c8                	mov    eax,ecx
    1706:	09 d0                	or     eax,edx
    1708:	0f 84 af 00 00 00    	je     17bd <mm_alloc_pm+0x11d>
						uint32_t rv2;
						rv2 = mm_fmrc_alloc_pm(fmm + i, pg_ct, 1, pr + pr_o,
    170e:	8b 45 e0             	mov    eax,DWORD PTR [ebp-0x20]
    1711:	8b 55 10             	mov    edx,DWORD PTR [ebp+0x10]
    1714:	89 d3                	mov    ebx,edx
    1716:	29 c3                	sub    ebx,eax
    1718:	8b 55 e0             	mov    edx,DWORD PTR [ebp-0x20]
    171b:	89 d0                	mov    eax,edx
    171d:	01 c0                	add    eax,eax
    171f:	01 d0                	add    eax,edx
    1721:	c1 e0 02             	shl    eax,0x2
    1724:	89 c2                	mov    edx,eax
    1726:	8b 45 0c             	mov    eax,DWORD PTR [ebp+0xc]
    1729:	8d 0c 02             	lea    ecx,[edx+eax*1]
    172c:	ba 00 40 02 00       	mov    edx,0x24000
    1731:	8b 45 f4             	mov    eax,DWORD PTR [ebp-0xc]
    1734:	6b c0 38             	imul   eax,eax,0x38
    1737:	01 c2                	add    edx,eax
    1739:	83 ec 08             	sub    esp,0x8
    173c:	8d 45 e0             	lea    eax,[ebp-0x20]
    173f:	50                   	push   eax
    1740:	53                   	push   ebx
    1741:	51                   	push   ecx
    1742:	6a 01                	push   0x1
    1744:	ff 75 08             	push   DWORD PTR [ebp+0x8]
    1747:	52                   	push   edx
    1748:	e8 fc ff ff ff       	call   1749 <mm_alloc_pm+0xa9>
    174d:	83 c4 20             	add    esp,0x20
    1750:	89 45 e8             	mov    DWORD PTR [ebp-0x18],eax
										pr_ct - pr_o, &pr_o);
						rv += rv2;
    1753:	8b 45 e8             	mov    eax,DWORD PTR [ebp-0x18]
    1756:	01 45 f0             	add    DWORD PTR [ebp-0x10],eax
						pg_ct -= rv2;
    1759:	8b 45 e8             	mov    eax,DWORD PTR [ebp-0x18]
    175c:	29 45 08             	sub    DWORD PTR [ebp+0x8],eax
						__sync_sub_and_fetch(&fmm[i].free_pages, rv2);
    175f:	8b 45 e8             	mov    eax,DWORD PTR [ebp-0x18]
    1762:	ba 00 00 00 00       	mov    edx,0x0
    1767:	89 45 c8             	mov    DWORD PTR [ebp-0x38],eax
    176a:	89 55 cc             	mov    DWORD PTR [ebp-0x34],edx
    176d:	ba 00 40 02 00       	mov    edx,0x24000
    1772:	8b 45 f4             	mov    eax,DWORD PTR [ebp-0xc]
    1775:	6b c0 38             	imul   eax,eax,0x38
    1778:	01 d0                	add    eax,edx
    177a:	8d 70 10             	lea    esi,[eax+0x10]
    177d:	8b 06                	mov    eax,DWORD PTR [esi]
    177f:	8b 56 04             	mov    edx,DWORD PTR [esi+0x4]
    1782:	89 c1                	mov    ecx,eax
    1784:	89 d3                	mov    ebx,edx
    1786:	2b 4d c8             	sub    ecx,DWORD PTR [ebp-0x38]
    1789:	1b 5d cc             	sbb    ebx,DWORD PTR [ebp-0x34]
    178c:	89 4d d0             	mov    DWORD PTR [ebp-0x30],ecx
    178f:	89 5d d4             	mov    DWORD PTR [ebp-0x2c],ebx
    1792:	8b 5d d0             	mov    ebx,DWORD PTR [ebp-0x30]
    1795:	8b 4d d4             	mov    ecx,DWORD PTR [ebp-0x2c]
    1798:	f0 0f c7 0e          	lock cmpxchg8b QWORD PTR [esi]
    179c:	0f 94 c1             	sete   cl
    179f:	84 c9                	test   cl,cl
    17a1:	74 df                	je     1782 <mm_alloc_pm+0xe2>
						if (pg_ct && !r2) /* skip scrub for now */
    17a3:	83 7d 08 00          	cmp    DWORD PTR [ebp+0x8],0x0
    17a7:	74 0a                	je     17b3 <mm_alloc_pm+0x113>
    17a9:	83 7d ec 00          	cmp    DWORD PTR [ebp-0x14],0x0
    17ad:	0f 84 d3 00 00 00    	je     1886 <mm_alloc_pm+0x1e6>
								continue;
						else if (!pg_ct)
    17b3:	83 7d 08 00          	cmp    DWORD PTR [ebp+0x8],0x0
    17b7:	0f 84 f4 00 00 00    	je     18b1 <mm_alloc_pm+0x211>
								goto done;
				}

				/* check for reclaimable */
				if (r2 && fmm[i].reclaimable_pages) {
    17bd:	83 7d ec 00          	cmp    DWORD PTR [ebp-0x14],0x0
    17c1:	0f 84 c0 00 00 00    	je     1887 <mm_alloc_pm+0x1e7>
    17c7:	ba 00 40 02 00       	mov    edx,0x24000
    17cc:	8b 45 f4             	mov    eax,DWORD PTR [ebp-0xc]
    17cf:	6b c0 38             	imul   eax,eax,0x38
    17d2:	01 d0                	add    eax,edx
    17d4:	8b 50 1c             	mov    edx,DWORD PTR [eax+0x1c]
    17d7:	8b 40 18             	mov    eax,DWORD PTR [eax+0x18]
    17da:	89 c1                	mov    ecx,eax
    17dc:	89 c8                	mov    eax,ecx
    17de:	09 d0                	or     eax,edx
    17e0:	0f 84 a1 00 00 00    	je     1887 <mm_alloc_pm+0x1e7>
						uint32_t rv2;
						rv2 = mm_fmrc_alloc_pm(fmm + i, pg_ct, 0, pr + pr_o,
    17e6:	8b 45 e0             	mov    eax,DWORD PTR [ebp-0x20]
    17e9:	8b 55 10             	mov    edx,DWORD PTR [ebp+0x10]
    17ec:	89 d3                	mov    ebx,edx
    17ee:	29 c3                	sub    ebx,eax
    17f0:	8b 55 e0             	mov    edx,DWORD PTR [ebp-0x20]
    17f3:	89 d0                	mov    eax,edx
    17f5:	01 c0                	add    eax,eax
    17f7:	01 d0                	add    eax,edx
    17f9:	c1 e0 02             	shl    eax,0x2
    17fc:	89 c2                	mov    edx,eax
    17fe:	8b 45 0c             	mov    eax,DWORD PTR [ebp+0xc]
    1801:	8d 0c 02             	lea    ecx,[edx+eax*1]
    1804:	ba 00 40 02 00       	mov    edx,0x24000
    1809:	8b 45 f4             	mov    eax,DWORD PTR [ebp-0xc]
    180c:	6b c0 38             	imul   eax,eax,0x38
    180f:	01 c2                	add    edx,eax
    1811:	83 ec 08             	sub    esp,0x8
    1814:	8d 45 e0             	lea    eax,[ebp-0x20]
    1817:	50                   	push   eax
    1818:	53                   	push   ebx
    1819:	51                   	push   ecx
    181a:	6a 00                	push   0x0
    181c:	ff 75 08             	push   DWORD PTR [ebp+0x8]
    181f:	52                   	push   edx
    1820:	e8 fc ff ff ff       	call   1821 <mm_alloc_pm+0x181>
    1825:	83 c4 20             	add    esp,0x20
    1828:	89 45 e4             	mov    DWORD PTR [ebp-0x1c],eax
										pr_ct - pr_o, &pr_o);
						rv += rv2;
    182b:	8b 45 e4             	mov    eax,DWORD PTR [ebp-0x1c]
    182e:	01 45 f0             	add    DWORD PTR [ebp-0x10],eax
						pg_ct -= rv2;
    1831:	8b 45 e4             	mov    eax,DWORD PTR [ebp-0x1c]
    1834:	29 45 08             	sub    DWORD PTR [ebp+0x8],eax
						__sync_sub_and_fetch(&fmm[i].reclaimable_pages, rv2);
    1837:	8b 45 e4             	mov    eax,DWORD PTR [ebp-0x1c]
    183a:	ba 00 00 00 00       	mov    edx,0x0
    183f:	89 45 c8             	mov    DWORD PTR [ebp-0x38],eax
    1842:	89 55 cc             	mov    DWORD PTR [ebp-0x34],edx
    1845:	ba 00 40 02 00       	mov    edx,0x24000
    184a:	8b 45 f4             	mov    eax,DWORD PTR [ebp-0xc]
    184d:	6b c0 38             	imul   eax,eax,0x38
    1850:	01 d0                	add    eax,edx
    1852:	8d 70 18             	lea    esi,[eax+0x18]
    1855:	8b 06                	mov    eax,DWORD PTR [esi]
    1857:	8b 56 04             	mov    edx,DWORD PTR [esi+0x4]
    185a:	89 c1                	mov    ecx,eax
    185c:	89 d3                	mov    ebx,edx
    185e:	2b 4d c8             	sub    ecx,DWORD PTR [ebp-0x38]
    1861:	1b 5d cc             	sbb    ebx,DWORD PTR [ebp-0x34]
    1864:	89 4d d0             	mov    DWORD PTR [ebp-0x30],ecx
    1867:	89 5d d4             	mov    DWORD PTR [ebp-0x2c],ebx
    186a:	8b 5d d0             	mov    ebx,DWORD PTR [ebp-0x30]
    186d:	8b 4d d4             	mov    ecx,DWORD PTR [ebp-0x2c]
    1870:	f0 0f c7 0e          	lock cmpxchg8b QWORD PTR [esi]
    1874:	0f 94 c1             	sete   cl
    1877:	84 c9                	test   cl,cl
    1879:	74 df                	je     185a <mm_alloc_pm+0x1ba>
						if (!pg_ct)
    187b:	83 7d 08 00          	cmp    DWORD PTR [ebp+0x8],0x0
    187f:	74 33                	je     18b4 <mm_alloc_pm+0x214>
    1881:	eb 04                	jmp    1887 <mm_alloc_pm+0x1e7>
						continue;
    1883:	90                   	nop
    1884:	eb 01                	jmp    1887 <mm_alloc_pm+0x1e7>
								continue;
    1886:	90                   	nop
		for (i = fm_begin; i < fm_ofs; i++) {
    1887:	83 45 f4 01          	add    DWORD PTR [ebp-0xc],0x1
    188b:	a1 18 00 00 00       	mov    eax,ds:0x18
    1890:	39 45 f4             	cmp    DWORD PTR [ebp-0xc],eax
    1893:	0f 82 31 fe ff ff    	jb     16ca <mm_alloc_pm+0x2a>
								goto done;
				}
		}

		/* scrub enabled */
		if (pg_ct && !r2) {
    1899:	83 7d 08 00          	cmp    DWORD PTR [ebp+0x8],0x0
    189d:	74 18                	je     18b7 <mm_alloc_pm+0x217>
    189f:	83 7d ec 00          	cmp    DWORD PTR [ebp-0x14],0x0
    18a3:	75 12                	jne    18b7 <mm_alloc_pm+0x217>
				r2 = 1;
    18a5:	c7 45 ec 01 00 00 00 	mov    DWORD PTR [ebp-0x14],0x1
				goto retry;
    18ac:	e9 0c fe ff ff       	jmp    16bd <mm_alloc_pm+0x1d>
								goto done;
    18b1:	90                   	nop
    18b2:	eb 04                	jmp    18b8 <mm_alloc_pm+0x218>
								goto done;
    18b4:	90                   	nop
    18b5:	eb 01                	jmp    18b8 <mm_alloc_pm+0x218>
		}

done:
    18b7:	90                   	nop
		if (!rv) { /* OOM */
    18b8:	83 7d f0 00          	cmp    DWORD PTR [ebp-0x10],0x0
    18bc:	75 13                	jne    18d1 <mm_alloc_pm+0x231>
				putstr("OOM");
    18be:	83 ec 0c             	sub    esp,0xc
    18c1:	68 34 00 00 00       	push   0x34
    18c6:	e8 fc ff ff ff       	call   18c7 <mm_alloc_pm+0x227>
    18cb:	83 c4 10             	add    esp,0x10
				while (1);
    18ce:	90                   	nop
    18cf:	eb fd                	jmp    18ce <mm_alloc_pm+0x22e>
		}

		/* null-terminate */
		if (pr_o < pr_ct) {
    18d1:	8b 45 e0             	mov    eax,DWORD PTR [ebp-0x20]
    18d4:	3b 45 10             	cmp    eax,DWORD PTR [ebp+0x10]
    18d7:	73 3c                	jae    1915 <mm_alloc_pm+0x275>
				pr[pr_o].base = 0;
    18d9:	8b 55 e0             	mov    edx,DWORD PTR [ebp-0x20]
    18dc:	89 d0                	mov    eax,edx
    18de:	01 c0                	add    eax,eax
    18e0:	01 d0                	add    eax,edx
    18e2:	c1 e0 02             	shl    eax,0x2
    18e5:	89 c2                	mov    edx,eax
    18e7:	8b 45 0c             	mov    eax,DWORD PTR [ebp+0xc]
    18ea:	01 d0                	add    eax,edx
    18ec:	c7 00 00 00 00 00    	mov    DWORD PTR [eax],0x0
    18f2:	c7 40 04 00 00 00 00 	mov    DWORD PTR [eax+0x4],0x0
				pr[pr_o].count = 0;
    18f9:	8b 55 e0             	mov    edx,DWORD PTR [ebp-0x20]
    18fc:	89 d0                	mov    eax,edx
    18fe:	01 c0                	add    eax,eax
    1900:	01 d0                	add    eax,edx
    1902:	c1 e0 02             	shl    eax,0x2
    1905:	89 c2                	mov    edx,eax
    1907:	8b 45 0c             	mov    eax,DWORD PTR [ebp+0xc]
    190a:	01 d0                	add    eax,edx
    190c:	c7 40 08 00 00 00 00 	mov    DWORD PTR [eax+0x8],0x0
    1913:	eb 4a                	jmp    195f <mm_alloc_pm+0x2bf>
		} else if (pr_o > 1) { /* when list */
    1915:	8b 45 e0             	mov    eax,DWORD PTR [ebp-0x20]
    1918:	83 f8 01             	cmp    eax,0x1
    191b:	76 42                	jbe    195f <mm_alloc_pm+0x2bf>
			put32(pr_o); putstr(" < "); put32(pr_ct); put_nl();
    191d:	8b 45 e0             	mov    eax,DWORD PTR [ebp-0x20]
    1920:	83 ec 0c             	sub    esp,0xc
    1923:	50                   	push   eax
    1924:	e8 fc ff ff ff       	call   1925 <mm_alloc_pm+0x285>
    1929:	83 c4 10             	add    esp,0x10
    192c:	83 ec 0c             	sub    esp,0xc
    192f:	68 38 00 00 00       	push   0x38
    1934:	e8 fc ff ff ff       	call   1935 <mm_alloc_pm+0x295>
    1939:	83 c4 10             	add    esp,0x10
    193c:	83 ec 0c             	sub    esp,0xc
    193f:	ff 75 10             	push   DWORD PTR [ebp+0x10]
    1942:	e8 fc ff ff ff       	call   1943 <mm_alloc_pm+0x2a3>
    1947:	83 c4 10             	add    esp,0x10
    194a:	e8 fc ff ff ff       	call   194b <mm_alloc_pm+0x2ab>
			puts("pr not null-terminated");
    194f:	83 ec 0c             	sub    esp,0xc
    1952:	68 3c 00 00 00       	push   0x3c
    1957:	e8 fc ff ff ff       	call   1958 <mm_alloc_pm+0x2b8>
    195c:	83 c4 10             	add    esp,0x10
		}
		return rv;
    195f:	8b 45 f0             	mov    eax,DWORD PTR [ebp-0x10]
}
    1962:	8d 65 f8             	lea    esp,[ebp-0x8]
    1965:	5b                   	pop    ebx
    1966:	5e                   	pop    esi
    1967:	5d                   	pop    ebp
    1968:	c3                   	ret

00001969 <mm_alloc_pm_cont>:

uint32_t mm_alloc_pm_cont(uint32_t pg_ct, struct page_range* pr)
{
    1969:	55                   	push   ebp
    196a:	89 e5                	mov    ebp,esp
		return 0;
    196c:	b8 00 00 00 00       	mov    eax,0x0
}
    1971:	5d                   	pop    ebp
    1972:	c3                   	ret

00001973 <mm_fm_init>:
/******************************************************************************/


/* minimal init, i.e. just mark as invalid */
void mm_fm_init(struct fme* fm, uint32_t ec, uint16_t rec)
{
    1973:	55                   	push   ebp
    1974:	89 e5                	mov    ebp,esp
    1976:	53                   	push   ebx
    1977:	83 ec 1c             	sub    esp,0x1c
    197a:	8b 45 10             	mov    eax,DWORD PTR [ebp+0x10]
    197d:	66 89 45 e4          	mov    WORD PTR [ebp-0x1c],ax
		uint64_t b = fm->base - 2 * ec * 4096;
    1981:	8b 45 08             	mov    eax,DWORD PTR [ebp+0x8]
    1984:	8b 50 04             	mov    edx,DWORD PTR [eax+0x4]
    1987:	8b 00                	mov    eax,DWORD PTR [eax]
    1989:	8b 4d 0c             	mov    ecx,DWORD PTR [ebp+0xc]
    198c:	c1 e1 0d             	shl    ecx,0xd
    198f:	bb 00 00 00 00       	mov    ebx,0x0
    1994:	29 c8                	sub    eax,ecx
    1996:	19 da                	sbb    edx,ebx
    1998:	89 45 f0             	mov    DWORD PTR [ebp-0x10],eax
    199b:	89 55 f4             	mov    DWORD PTR [ebp-0xc],edx
		uint32_t ec2 = ec;
    199e:	8b 45 0c             	mov    eax,DWORD PTR [ebp+0xc]
    19a1:	89 45 ec             	mov    DWORD PTR [ebp-0x14],eax

		/* init the pmu */
redo:
		do {
				struct pmu* p = (void*)(size_t)b;
    19a4:	8b 45 f0             	mov    eax,DWORD PTR [ebp-0x10]
    19a7:	89 45 e8             	mov    DWORD PTR [ebp-0x18],eax
				if (b > 0x100000000 - 4096) /* the rest will be done in the */
    19aa:	ba 00 f0 ff ff       	mov    edx,0xfffff000
    19af:	b8 00 00 00 00       	mov    eax,0x0
    19b4:	3b 55 f0             	cmp    edx,DWORD PTR [ebp-0x10]
    19b7:	1b 45 f4             	sbb    eax,DWORD PTR [ebp-0xc]
    19ba:	72 71                	jb     1a2d <mm_fm_init+0xba>
						return; /* 64-bit/PAE code loaded later */
				else
						b += 4096;
    19bc:	81 45 f0 00 10 00 00 	add    DWORD PTR [ebp-0x10],0x1000
    19c3:	83 55 f4 00          	adc    DWORD PTR [ebp-0xc],0x0

				/* clear the locks */
				bzero(p->locks, sizeof(p->locks));
    19c7:	8b 45 e8             	mov    eax,DWORD PTR [ebp-0x18]
    19ca:	6a 08                	push   0x8
    19cc:	50                   	push   eax
    19cd:	e8 fc ff ff ff       	call   19ce <mm_fm_init+0x5b>
    19d2:	83 c4 08             	add    esp,0x8
				/* invalidate the counts and put rec in the last one */
				p->free_ct[0] = 0xffff;
    19d5:	8b 45 e8             	mov    eax,DWORD PTR [ebp-0x18]
    19d8:	66 c7 40 08 ff ff    	mov    WORD PTR [eax+0x8],0xffff
				p->free_ct[1] = 0xffff;
    19de:	8b 45 e8             	mov    eax,DWORD PTR [ebp-0x18]
    19e1:	66 c7 40 0a ff ff    	mov    WORD PTR [eax+0xa],0xffff
				p->free_ct[2] = 0xffff;
    19e7:	8b 45 e8             	mov    eax,DWORD PTR [ebp-0x18]
    19ea:	66 c7 40 0c ff ff    	mov    WORD PTR [eax+0xc],0xffff
				p->free_ct[3] = (ec == 1) ? rec : 0xffff;
    19f0:	83 7d 0c 01          	cmp    DWORD PTR [ebp+0xc],0x1
    19f4:	75 06                	jne    19fc <mm_fm_init+0x89>
    19f6:	0f b7 45 e4          	movzx  eax,WORD PTR [ebp-0x1c]
    19fa:	eb 05                	jmp    1a01 <mm_fm_init+0x8e>
    19fc:	b8 ff ff ff ff       	mov    eax,0xffffffff
    1a01:	8b 55 e8             	mov    edx,DWORD PTR [ebp-0x18]
    1a04:	66 89 42 0e          	mov    WORD PTR [edx+0xe],ax
		} while (ec--);
    1a08:	8b 45 0c             	mov    eax,DWORD PTR [ebp+0xc]
    1a0b:	8d 50 ff             	lea    edx,[eax-0x1]
    1a0e:	89 55 0c             	mov    DWORD PTR [ebp+0xc],edx
    1a11:	85 c0                	test   eax,eax
    1a13:	75 8f                	jne    19a4 <mm_fm_init+0x31>
		/* also for rcp */
		if (ec2) {
    1a15:	83 7d ec 00          	cmp    DWORD PTR [ebp-0x14],0x0
    1a19:	74 13                	je     1a2e <mm_fm_init+0xbb>
				ec = ec2;
    1a1b:	8b 45 ec             	mov    eax,DWORD PTR [ebp-0x14]
    1a1e:	89 45 0c             	mov    DWORD PTR [ebp+0xc],eax
				ec2 = 0;
    1a21:	c7 45 ec 00 00 00 00 	mov    DWORD PTR [ebp-0x14],0x0
				goto redo;
    1a28:	e9 77 ff ff ff       	jmp    19a4 <mm_fm_init+0x31>
						return; /* 64-bit/PAE code loaded later */
    1a2d:	90                   	nop
		}

}
    1a2e:	8b 5d fc             	mov    ebx,DWORD PTR [ebp-0x4]
    1a31:	c9                   	leave
    1a32:	c3                   	ret

00001a33 <mm_pg64_init>:
				uint32_t idx; /* max 512*512*512 */
		} extra_pts[64];
};

void mm_pg64_init()
{
    1a33:	55                   	push   ebp
    1a34:	89 e5                	mov    ebp,esp
    1a36:	56                   	push   esi
    1a37:	53                   	push   ebx
    1a38:	83 ec 60             	sub    esp,0x60
		struct page_range pr;
		struct vm_pg_ptrs64* vp = vm_mapping;
    1a3b:	a1 00 00 00 00       	mov    eax,ds:0x0
    1a40:	89 45 f0             	mov    DWORD PTR [ebp-0x10],eax
		struct pm_pg64_ptrs* pp = (void*)(vp + 1);
    1a43:	8b 45 f0             	mov    eax,DWORD PTR [ebp-0x10]
    1a46:	05 28 20 00 00       	add    eax,0x2028
    1a4b:	89 45 ec             	mov    DWORD PTR [ebp-0x14],eax
		struct pte64 *p, *p1, *p2, *pl1, *pl2, *pt1, *pt2;
		struct vm_pdpte_ptr *m1, *m2;
		struct vm_pde_ptr *n1, *n2;

		/* clear the mappings */
		bzero(vp, sizeof(*vp));
    1a4e:	68 28 20 00 00       	push   0x2028
    1a53:	ff 75 f0             	push   DWORD PTR [ebp-0x10]
    1a56:	e8 fc ff ff ff       	call   1a57 <mm_pg64_init+0x24>
    1a5b:	83 c4 08             	add    esp,0x8
		vp->cur = 0xfffffffffffff000;
    1a5e:	8b 45 f0             	mov    eax,DWORD PTR [ebp-0x10]
    1a61:	c7 00 00 f0 ff ff    	mov    DWORD PTR [eax],0xfffff000
    1a67:	c7 40 04 ff ff ff ff 	mov    DWORD PTR [eax+0x4],0xffffffff
		bzero(pp, sizeof(*pp));
    1a6e:	68 b4 03 00 00       	push   0x3b4
    1a73:	ff 75 ec             	push   DWORD PTR [ebp-0x14]
    1a76:	e8 fc ff ff ff       	call   1a77 <mm_pg64_init+0x44>
    1a7b:	83 c4 08             	add    esp,0x8

		/* first get PML4 table (scrubbed i.e. all np) */
		mm_alloc_pm(1, &pr, 1);
    1a7e:	83 ec 04             	sub    esp,0x4
    1a81:	6a 01                	push   0x1
    1a83:	8d 45 a0             	lea    eax,[ebp-0x60]
    1a86:	50                   	push   eax
    1a87:	6a 01                	push   0x1
    1a89:	e8 fc ff ff ff       	call   1a8a <mm_pg64_init+0x57>
    1a8e:	83 c4 10             	add    esp,0x10
		cr3_val = pr.base;
    1a91:	8b 45 a0             	mov    eax,DWORD PTR [ebp-0x60]
    1a94:	8b 55 a4             	mov    edx,DWORD PTR [ebp-0x5c]
    1a97:	a3 00 00 00 00       	mov    ds:0x0,eax
    1a9c:	89 15 04 00 00 00    	mov    DWORD PTR ds:0x4,edx
		vp->pml4 = vp->cur; // f -> 10
    1aa2:	8b 45 f0             	mov    eax,DWORD PTR [ebp-0x10]
    1aa5:	8b 50 04             	mov    edx,DWORD PTR [eax+0x4]
    1aa8:	8b 00                	mov    eax,DWORD PTR [eax]
    1aaa:	8b 4d f0             	mov    ecx,DWORD PTR [ebp-0x10]
    1aad:	89 41 08             	mov    DWORD PTR [ecx+0x8],eax
    1ab0:	89 51 0c             	mov    DWORD PTR [ecx+0xc],edx
		vp->cur -= 4096;
    1ab3:	8b 45 f0             	mov    eax,DWORD PTR [ebp-0x10]
    1ab6:	8b 50 04             	mov    edx,DWORD PTR [eax+0x4]
    1ab9:	8b 00                	mov    eax,DWORD PTR [eax]
    1abb:	05 00 f0 ff ff       	add    eax,0xfffff000
    1ac0:	83 d2 ff             	adc    edx,0xffffffff
    1ac3:	8b 4d f0             	mov    ecx,DWORD PTR [ebp-0x10]
    1ac6:	89 01                	mov    DWORD PTR [ecx],eax
    1ac8:	89 51 04             	mov    DWORD PTR [ecx+0x4],edx
		p = (void*)(size_t)pr.base;
    1acb:	8b 45 a0             	mov    eax,DWORD PTR [ebp-0x60]
    1ace:	8b 55 a4             	mov    edx,DWORD PTR [ebp-0x5c]
    1ad1:	89 45 e8             	mov    DWORD PTR [ebp-0x18],eax

		/* and create two entries (base+high):
		 * --> first the lower */
		mm_alloc_pm(1, &pr, 1);
    1ad4:	83 ec 04             	sub    esp,0x4
    1ad7:	6a 01                	push   0x1
    1ad9:	8d 45 a0             	lea    eax,[ebp-0x60]
    1adc:	50                   	push   eax
    1add:	6a 01                	push   0x1
    1adf:	e8 fc ff ff ff       	call   1ae0 <mm_pg64_init+0xad>
    1ae4:	83 c4 10             	add    esp,0x10
		p1 = (void*)(size_t)pr.base;
    1ae7:	8b 45 a0             	mov    eax,DWORD PTR [ebp-0x60]
    1aea:	8b 55 a4             	mov    edx,DWORD PTR [ebp-0x5c]
    1aed:	89 45 e4             	mov    DWORD PTR [ebp-0x1c],eax
		vp->pml4e[0] = vp->cur; // e -> 11
    1af0:	8b 45 f0             	mov    eax,DWORD PTR [ebp-0x10]
    1af3:	8b 50 04             	mov    edx,DWORD PTR [eax+0x4]
    1af6:	8b 00                	mov    eax,DWORD PTR [eax]
    1af8:	8b 4d f0             	mov    ecx,DWORD PTR [ebp-0x10]
    1afb:	89 41 10             	mov    DWORD PTR [ecx+0x10],eax
    1afe:	89 51 14             	mov    DWORD PTR [ecx+0x14],edx
		vp->cur -= 4096;
    1b01:	8b 45 f0             	mov    eax,DWORD PTR [ebp-0x10]
    1b04:	8b 50 04             	mov    edx,DWORD PTR [eax+0x4]
    1b07:	8b 00                	mov    eax,DWORD PTR [eax]
    1b09:	05 00 f0 ff ff       	add    eax,0xfffff000
    1b0e:	83 d2 ff             	adc    edx,0xffffffff
    1b11:	8b 4d f0             	mov    ecx,DWORD PTR [ebp-0x10]
    1b14:	89 01                	mov    DWORD PTR [ecx],eax
    1b16:	89 51 04             	mov    DWORD PTR [ecx+0x4],edx
		/* and the upper end */
		mm_alloc_pm(1, &pr, 1);
    1b19:	83 ec 04             	sub    esp,0x4
    1b1c:	6a 01                	push   0x1
    1b1e:	8d 45 a0             	lea    eax,[ebp-0x60]
    1b21:	50                   	push   eax
    1b22:	6a 01                	push   0x1
    1b24:	e8 fc ff ff ff       	call   1b25 <mm_pg64_init+0xf2>
    1b29:	83 c4 10             	add    esp,0x10
		p2 = (void*)(size_t)pr.base;
    1b2c:	8b 45 a0             	mov    eax,DWORD PTR [ebp-0x60]
    1b2f:	8b 55 a4             	mov    edx,DWORD PTR [ebp-0x5c]
    1b32:	89 45 e0             	mov    DWORD PTR [ebp-0x20],eax
		vp->pml4e[511] = vp->cur; // d -> 12
    1b35:	8b 45 f0             	mov    eax,DWORD PTR [ebp-0x10]
    1b38:	8b 50 04             	mov    edx,DWORD PTR [eax+0x4]
    1b3b:	8b 00                	mov    eax,DWORD PTR [eax]
    1b3d:	8b 4d f0             	mov    ecx,DWORD PTR [ebp-0x10]
    1b40:	89 81 08 10 00 00    	mov    DWORD PTR [ecx+0x1008],eax
    1b46:	89 91 0c 10 00 00    	mov    DWORD PTR [ecx+0x100c],edx
		vp->cur -= 4096;
    1b4c:	8b 45 f0             	mov    eax,DWORD PTR [ebp-0x10]
    1b4f:	8b 50 04             	mov    edx,DWORD PTR [eax+0x4]
    1b52:	8b 00                	mov    eax,DWORD PTR [eax]
    1b54:	05 00 f0 ff ff       	add    eax,0xfffff000
    1b59:	83 d2 ff             	adc    edx,0xffffffff
    1b5c:	8b 4d f0             	mov    ecx,DWORD PTR [ebp-0x10]
    1b5f:	89 01                	mov    DWORD PTR [ecx],eax
    1b61:	89 51 04             	mov    DWORD PTR [ecx+0x4],edx
		/* p1 and p2 are PDPTs (pointed by PML4E) */

		/* register them in the PML4 (512G per entry) */
		p[0].p = 1;
    1b64:	8b 45 e8             	mov    eax,DWORD PTR [ebp-0x18]
    1b67:	0f b6 10             	movzx  edx,BYTE PTR [eax]
    1b6a:	83 ca 01             	or     edx,0x1
    1b6d:	88 10                	mov    BYTE PTR [eax],dl
		p[0].w = 1; /* non-restrictive */
    1b6f:	8b 45 e8             	mov    eax,DWORD PTR [ebp-0x18]
    1b72:	0f b6 10             	movzx  edx,BYTE PTR [eax]
    1b75:	83 ca 02             	or     edx,0x2
    1b78:	88 10                	mov    BYTE PTR [eax],dl
		p[0].u = 1; /* likewise */
    1b7a:	8b 45 e8             	mov    eax,DWORD PTR [ebp-0x18]
    1b7d:	0f b6 10             	movzx  edx,BYTE PTR [eax]
    1b80:	83 ca 04             	or     edx,0x4
    1b83:	88 10                	mov    BYTE PTR [eax],dl
		p[0].addr = (size_t)p1 / 4096;
    1b85:	8b 45 e4             	mov    eax,DWORD PTR [ebp-0x1c]
    1b88:	c1 e8 0c             	shr    eax,0xc
    1b8b:	ba 00 00 00 00       	mov    edx,0x0
    1b90:	81 e2 ff 00 00 00    	and    edx,0xff
    1b96:	8b 4d e8             	mov    ecx,DWORD PTR [ebp-0x18]
    1b99:	89 c3                	mov    ebx,eax
    1b9b:	81 e3 ff ff 0f 00    	and    ebx,0xfffff
    1ba1:	89 de                	mov    esi,ebx
    1ba3:	c1 e6 0c             	shl    esi,0xc
    1ba6:	8b 19                	mov    ebx,DWORD PTR [ecx]
    1ba8:	81 e3 ff 0f 00 00    	and    ebx,0xfff
    1bae:	09 f3                	or     ebx,esi
    1bb0:	89 19                	mov    DWORD PTR [ecx],ebx
    1bb2:	89 c3                	mov    ebx,eax
    1bb4:	c1 eb 14             	shr    ebx,0x14
    1bb7:	89 de                	mov    esi,ebx
    1bb9:	66 81 e6 ff 0f       	and    si,0xfff
    1bbe:	0f b7 59 04          	movzx  ebx,WORD PTR [ecx+0x4]
    1bc2:	66 81 e3 00 f0       	and    bx,0xf000
    1bc7:	09 f3                	or     ebx,esi
    1bc9:	66 89 59 04          	mov    WORD PTR [ecx+0x4],bx
    1bcd:	0f b6 c2             	movzx  eax,dl
    1bd0:	c1 e0 0c             	shl    eax,0xc
    1bd3:	89 c2                	mov    edx,eax
    1bd5:	8b 41 04             	mov    eax,DWORD PTR [ecx+0x4]
    1bd8:	25 ff 0f f0 ff       	and    eax,0xfff00fff
    1bdd:	09 d0                	or     eax,edx
    1bdf:	89 41 04             	mov    DWORD PTR [ecx+0x4],eax
		p[511].p = 1;
    1be2:	8b 45 e8             	mov    eax,DWORD PTR [ebp-0x18]
    1be5:	05 f8 0f 00 00       	add    eax,0xff8
    1bea:	0f b6 10             	movzx  edx,BYTE PTR [eax]
    1bed:	83 ca 01             	or     edx,0x1
    1bf0:	88 10                	mov    BYTE PTR [eax],dl
		p[511].w = 1;
    1bf2:	8b 45 e8             	mov    eax,DWORD PTR [ebp-0x18]
    1bf5:	05 f8 0f 00 00       	add    eax,0xff8
    1bfa:	0f b6 10             	movzx  edx,BYTE PTR [eax]
    1bfd:	83 ca 02             	or     edx,0x2
    1c00:	88 10                	mov    BYTE PTR [eax],dl
		p[511].u = 1;
    1c02:	8b 45 e8             	mov    eax,DWORD PTR [ebp-0x18]
    1c05:	05 f8 0f 00 00       	add    eax,0xff8
    1c0a:	0f b6 10             	movzx  edx,BYTE PTR [eax]
    1c0d:	83 ca 04             	or     edx,0x4
    1c10:	88 10                	mov    BYTE PTR [eax],dl
		p[511].addr = (size_t)p2 / 4096;
    1c12:	8b 45 e0             	mov    eax,DWORD PTR [ebp-0x20]
    1c15:	c1 e8 0c             	shr    eax,0xc
    1c18:	89 c2                	mov    edx,eax
    1c1a:	8b 45 e8             	mov    eax,DWORD PTR [ebp-0x18]
    1c1d:	8d 88 f8 0f 00 00    	lea    ecx,[eax+0xff8]
    1c23:	89 d0                	mov    eax,edx
    1c25:	ba 00 00 00 00       	mov    edx,0x0
    1c2a:	81 e2 ff 00 00 00    	and    edx,0xff
    1c30:	89 c3                	mov    ebx,eax
    1c32:	81 e3 ff ff 0f 00    	and    ebx,0xfffff
    1c38:	89 de                	mov    esi,ebx
    1c3a:	c1 e6 0c             	shl    esi,0xc
    1c3d:	8b 19                	mov    ebx,DWORD PTR [ecx]
    1c3f:	81 e3 ff 0f 00 00    	and    ebx,0xfff
    1c45:	09 f3                	or     ebx,esi
    1c47:	89 19                	mov    DWORD PTR [ecx],ebx
    1c49:	89 c3                	mov    ebx,eax
    1c4b:	c1 eb 14             	shr    ebx,0x14
    1c4e:	89 de                	mov    esi,ebx
    1c50:	66 81 e6 ff 0f       	and    si,0xfff
    1c55:	0f b7 59 04          	movzx  ebx,WORD PTR [ecx+0x4]
    1c59:	66 81 e3 00 f0       	and    bx,0xf000
    1c5e:	09 f3                	or     ebx,esi
    1c60:	66 89 59 04          	mov    WORD PTR [ecx+0x4],bx
    1c64:	0f b6 c2             	movzx  eax,dl
    1c67:	c1 e0 0c             	shl    eax,0xc
    1c6a:	89 c2                	mov    edx,eax
    1c6c:	8b 41 04             	mov    eax,DWORD PTR [ecx+0x4]
    1c6f:	25 ff 0f f0 ff       	and    eax,0xfff00fff
    1c74:	09 d0                	or     eax,edx
    1c76:	89 41 04             	mov    DWORD PTR [ecx+0x4],eax

		/* create the VM mapping of the PDPTEs */
		uint32_t ct = mm_alloc_pm(2, &pr, 1); /* TODO check cont */
    1c79:	83 ec 04             	sub    esp,0x4
    1c7c:	6a 01                	push   0x1
    1c7e:	8d 45 a0             	lea    eax,[ebp-0x60]
    1c81:	50                   	push   eax
    1c82:	6a 02                	push   0x2
    1c84:	e8 fc ff ff ff       	call   1c85 <mm_pg64_init+0x252>
    1c89:	83 c4 10             	add    esp,0x10
    1c8c:	89 45 dc             	mov    DWORD PTR [ebp-0x24],eax

		if (ct != 2) {
    1c8f:	83 7d dc 02          	cmp    DWORD PTR [ebp-0x24],0x2
    1c93:	74 17                	je     1cac <mm_pg64_init+0x279>
la_meme:
    1c95:	90                   	nop
    1c96:	eb 01                	jmp    1c99 <mm_pg64_init+0x266>
		vp->cur -= 8192;
		m1 = (void*)(size_t)pr.base;
		ct = mm_alloc_pm(2, &pr, 1);

		if (ct != 2)
				goto la_meme;
    1c98:	90                   	nop
				puts("unable to alloc two consecutive pages\n");
    1c99:	83 ec 0c             	sub    esp,0xc
    1c9c:	68 54 00 00 00       	push   0x54
    1ca1:	e8 fc ff ff ff       	call   1ca2 <mm_pg64_init+0x26f>
    1ca6:	83 c4 10             	add    esp,0x10
				while (1);
    1ca9:	90                   	nop
    1caa:	eb fd                	jmp    1ca9 <mm_pg64_init+0x276>
		vp->pdpte[0] = vp->cur - 4096; // bc -> 13/14
    1cac:	8b 45 f0             	mov    eax,DWORD PTR [ebp-0x10]
    1caf:	8b 50 04             	mov    edx,DWORD PTR [eax+0x4]
    1cb2:	8b 00                	mov    eax,DWORD PTR [eax]
    1cb4:	05 00 f0 ff ff       	add    eax,0xfffff000
    1cb9:	83 d2 ff             	adc    edx,0xffffffff
    1cbc:	8b 4d f0             	mov    ecx,DWORD PTR [ebp-0x10]
    1cbf:	89 81 10 10 00 00    	mov    DWORD PTR [ecx+0x1010],eax
    1cc5:	89 91 14 10 00 00    	mov    DWORD PTR [ecx+0x1014],edx
		vp->cur -= 8192;
    1ccb:	8b 45 f0             	mov    eax,DWORD PTR [ebp-0x10]
    1cce:	8b 50 04             	mov    edx,DWORD PTR [eax+0x4]
    1cd1:	8b 00                	mov    eax,DWORD PTR [eax]
    1cd3:	05 00 e0 ff ff       	add    eax,0xffffe000
    1cd8:	83 d2 ff             	adc    edx,0xffffffff
    1cdb:	8b 4d f0             	mov    ecx,DWORD PTR [ebp-0x10]
    1cde:	89 01                	mov    DWORD PTR [ecx],eax
    1ce0:	89 51 04             	mov    DWORD PTR [ecx+0x4],edx
		m1 = (void*)(size_t)pr.base;
    1ce3:	8b 45 a0             	mov    eax,DWORD PTR [ebp-0x60]
    1ce6:	8b 55 a4             	mov    edx,DWORD PTR [ebp-0x5c]
    1ce9:	89 45 d8             	mov    DWORD PTR [ebp-0x28],eax
		ct = mm_alloc_pm(2, &pr, 1);
    1cec:	83 ec 04             	sub    esp,0x4
    1cef:	6a 01                	push   0x1
    1cf1:	8d 45 a0             	lea    eax,[ebp-0x60]
    1cf4:	50                   	push   eax
    1cf5:	6a 02                	push   0x2
    1cf7:	e8 fc ff ff ff       	call   1cf8 <mm_pg64_init+0x2c5>
    1cfc:	83 c4 10             	add    esp,0x10
    1cff:	89 45 dc             	mov    DWORD PTR [ebp-0x24],eax
		if (ct != 2)
    1d02:	83 7d dc 02          	cmp    DWORD PTR [ebp-0x24],0x2
    1d06:	75 90                	jne    1c98 <mm_pg64_init+0x265>

		vp->pdpte[511] = vp->cur - 4096; // 9a 15/16
    1d08:	8b 45 f0             	mov    eax,DWORD PTR [ebp-0x10]
    1d0b:	8b 50 04             	mov    edx,DWORD PTR [eax+0x4]
    1d0e:	8b 00                	mov    eax,DWORD PTR [eax]
    1d10:	05 00 f0 ff ff       	add    eax,0xfffff000
    1d15:	83 d2 ff             	adc    edx,0xffffffff
    1d18:	8b 4d f0             	mov    ecx,DWORD PTR [ebp-0x10]
    1d1b:	89 81 08 20 00 00    	mov    DWORD PTR [ecx+0x2008],eax
    1d21:	89 91 0c 20 00 00    	mov    DWORD PTR [ecx+0x200c],edx
		vp->cur -= 8192;
    1d27:	8b 45 f0             	mov    eax,DWORD PTR [ebp-0x10]
    1d2a:	8b 50 04             	mov    edx,DWORD PTR [eax+0x4]
    1d2d:	8b 00                	mov    eax,DWORD PTR [eax]
    1d2f:	05 00 e0 ff ff       	add    eax,0xffffe000
    1d34:	83 d2 ff             	adc    edx,0xffffffff
    1d37:	8b 4d f0             	mov    ecx,DWORD PTR [ebp-0x10]
    1d3a:	89 01                	mov    DWORD PTR [ecx],eax
    1d3c:	89 51 04             	mov    DWORD PTR [ecx+0x4],edx
		m2 = (void*)(size_t)pr.base;
    1d3f:	8b 45 a0             	mov    eax,DWORD PTR [ebp-0x60]
    1d42:	8b 55 a4             	mov    edx,DWORD PTR [ebp-0x5c]
    1d45:	89 45 d4             	mov    DWORD PTR [ebp-0x2c],eax

		/* Now create two PDs (pointed by PDPTE) (1G per entry) */
		mm_alloc_pm(1, &pr, 1);
    1d48:	83 ec 04             	sub    esp,0x4
    1d4b:	6a 01                	push   0x1
    1d4d:	8d 45 a0             	lea    eax,[ebp-0x60]
    1d50:	50                   	push   eax
    1d51:	6a 01                	push   0x1
    1d53:	e8 fc ff ff ff       	call   1d54 <mm_pg64_init+0x321>
    1d58:	83 c4 10             	add    esp,0x10
		pl1 = (void*)(size_t)pr.base;
    1d5b:	8b 45 a0             	mov    eax,DWORD PTR [ebp-0x60]
    1d5e:	8b 55 a4             	mov    edx,DWORD PTR [ebp-0x5c]
    1d61:	89 45 d0             	mov    DWORD PTR [ebp-0x30],eax
		m1->pds[0] = vp->cur; // 8 -> 17
    1d64:	8b 45 f0             	mov    eax,DWORD PTR [ebp-0x10]
    1d67:	8b 50 04             	mov    edx,DWORD PTR [eax+0x4]
    1d6a:	8b 00                	mov    eax,DWORD PTR [eax]
    1d6c:	8b 4d d8             	mov    ecx,DWORD PTR [ebp-0x28]
    1d6f:	89 01                	mov    DWORD PTR [ecx],eax
    1d71:	89 51 04             	mov    DWORD PTR [ecx+0x4],edx
		vp->cur -= 4096;
    1d74:	8b 45 f0             	mov    eax,DWORD PTR [ebp-0x10]
    1d77:	8b 50 04             	mov    edx,DWORD PTR [eax+0x4]
    1d7a:	8b 00                	mov    eax,DWORD PTR [eax]
    1d7c:	05 00 f0 ff ff       	add    eax,0xfffff000
    1d81:	83 d2 ff             	adc    edx,0xffffffff
    1d84:	8b 4d f0             	mov    ecx,DWORD PTR [ebp-0x10]
    1d87:	89 01                	mov    DWORD PTR [ecx],eax
    1d89:	89 51 04             	mov    DWORD PTR [ecx+0x4],edx
		mm_alloc_pm(1, &pr, 1);
    1d8c:	83 ec 04             	sub    esp,0x4
    1d8f:	6a 01                	push   0x1
    1d91:	8d 45 a0             	lea    eax,[ebp-0x60]
    1d94:	50                   	push   eax
    1d95:	6a 01                	push   0x1
    1d97:	e8 fc ff ff ff       	call   1d98 <mm_pg64_init+0x365>
    1d9c:	83 c4 10             	add    esp,0x10
		pl2 = (void*)(size_t)pr.base;
    1d9f:	8b 45 a0             	mov    eax,DWORD PTR [ebp-0x60]
    1da2:	8b 55 a4             	mov    edx,DWORD PTR [ebp-0x5c]
    1da5:	89 45 cc             	mov    DWORD PTR [ebp-0x34],eax
		m2->pds[511] = vp->cur; // 7 -> 18
    1da8:	8b 45 f0             	mov    eax,DWORD PTR [ebp-0x10]
    1dab:	8b 50 04             	mov    edx,DWORD PTR [eax+0x4]
    1dae:	8b 00                	mov    eax,DWORD PTR [eax]
    1db0:	8b 4d d4             	mov    ecx,DWORD PTR [ebp-0x2c]
    1db3:	89 81 f8 0f 00 00    	mov    DWORD PTR [ecx+0xff8],eax
    1db9:	89 91 fc 0f 00 00    	mov    DWORD PTR [ecx+0xffc],edx
		vp->cur -= 4096;
    1dbf:	8b 45 f0             	mov    eax,DWORD PTR [ebp-0x10]
    1dc2:	8b 50 04             	mov    edx,DWORD PTR [eax+0x4]
    1dc5:	8b 00                	mov    eax,DWORD PTR [eax]
    1dc7:	05 00 f0 ff ff       	add    eax,0xfffff000
    1dcc:	83 d2 ff             	adc    edx,0xffffffff
    1dcf:	8b 4d f0             	mov    ecx,DWORD PTR [ebp-0x10]
    1dd2:	89 01                	mov    DWORD PTR [ecx],eax
    1dd4:	89 51 04             	mov    DWORD PTR [ecx+0x4],edx
		/* pl1 and pl2 are two PDs (2M per PDE) */

		/* register in the two PDPTs */
		p1[0].p = 1;
    1dd7:	8b 45 e4             	mov    eax,DWORD PTR [ebp-0x1c]
    1dda:	0f b6 10             	movzx  edx,BYTE PTR [eax]
    1ddd:	83 ca 01             	or     edx,0x1
    1de0:	88 10                	mov    BYTE PTR [eax],dl
		p1[0].w = 1;
    1de2:	8b 45 e4             	mov    eax,DWORD PTR [ebp-0x1c]
    1de5:	0f b6 10             	movzx  edx,BYTE PTR [eax]
    1de8:	83 ca 02             	or     edx,0x2
    1deb:	88 10                	mov    BYTE PTR [eax],dl
		p1[0].u = 1;
    1ded:	8b 45 e4             	mov    eax,DWORD PTR [ebp-0x1c]
    1df0:	0f b6 10             	movzx  edx,BYTE PTR [eax]
    1df3:	83 ca 04             	or     edx,0x4
    1df6:	88 10                	mov    BYTE PTR [eax],dl
		p1[0].addr = (size_t)pl1 / 4096;
    1df8:	8b 45 d0             	mov    eax,DWORD PTR [ebp-0x30]
    1dfb:	c1 e8 0c             	shr    eax,0xc
    1dfe:	ba 00 00 00 00       	mov    edx,0x0
    1e03:	81 e2 ff 00 00 00    	and    edx,0xff
    1e09:	8b 4d e4             	mov    ecx,DWORD PTR [ebp-0x1c]
    1e0c:	89 c3                	mov    ebx,eax
    1e0e:	81 e3 ff ff 0f 00    	and    ebx,0xfffff
    1e14:	89 de                	mov    esi,ebx
    1e16:	c1 e6 0c             	shl    esi,0xc
    1e19:	8b 19                	mov    ebx,DWORD PTR [ecx]
    1e1b:	81 e3 ff 0f 00 00    	and    ebx,0xfff
    1e21:	09 f3                	or     ebx,esi
    1e23:	89 19                	mov    DWORD PTR [ecx],ebx
    1e25:	89 c3                	mov    ebx,eax
    1e27:	c1 eb 14             	shr    ebx,0x14
    1e2a:	89 de                	mov    esi,ebx
    1e2c:	66 81 e6 ff 0f       	and    si,0xfff
    1e31:	0f b7 59 04          	movzx  ebx,WORD PTR [ecx+0x4]
    1e35:	66 81 e3 00 f0       	and    bx,0xf000
    1e3a:	09 f3                	or     ebx,esi
    1e3c:	66 89 59 04          	mov    WORD PTR [ecx+0x4],bx
    1e40:	0f b6 c2             	movzx  eax,dl
    1e43:	c1 e0 0c             	shl    eax,0xc
    1e46:	89 c2                	mov    edx,eax
    1e48:	8b 41 04             	mov    eax,DWORD PTR [ecx+0x4]
    1e4b:	25 ff 0f f0 ff       	and    eax,0xfff00fff
    1e50:	09 d0                	or     eax,edx
    1e52:	89 41 04             	mov    DWORD PTR [ecx+0x4],eax
		p2[511].p = 1;
    1e55:	8b 45 e0             	mov    eax,DWORD PTR [ebp-0x20]
    1e58:	05 f8 0f 00 00       	add    eax,0xff8
    1e5d:	0f b6 10             	movzx  edx,BYTE PTR [eax]
    1e60:	83 ca 01             	or     edx,0x1
    1e63:	88 10                	mov    BYTE PTR [eax],dl
		p2[511].w = 1;
    1e65:	8b 45 e0             	mov    eax,DWORD PTR [ebp-0x20]
    1e68:	05 f8 0f 00 00       	add    eax,0xff8
    1e6d:	0f b6 10             	movzx  edx,BYTE PTR [eax]
    1e70:	83 ca 02             	or     edx,0x2
    1e73:	88 10                	mov    BYTE PTR [eax],dl
		p2[511].u = 1;
    1e75:	8b 45 e0             	mov    eax,DWORD PTR [ebp-0x20]
    1e78:	05 f8 0f 00 00       	add    eax,0xff8
    1e7d:	0f b6 10             	movzx  edx,BYTE PTR [eax]
    1e80:	83 ca 04             	or     edx,0x4
    1e83:	88 10                	mov    BYTE PTR [eax],dl
		p2[511].addr = (size_t)pl2 / 4096;
    1e85:	8b 45 cc             	mov    eax,DWORD PTR [ebp-0x34]
    1e88:	c1 e8 0c             	shr    eax,0xc
    1e8b:	89 c2                	mov    edx,eax
    1e8d:	8b 45 e0             	mov    eax,DWORD PTR [ebp-0x20]
    1e90:	8d 88 f8 0f 00 00    	lea    ecx,[eax+0xff8]
    1e96:	89 d0                	mov    eax,edx
    1e98:	ba 00 00 00 00       	mov    edx,0x0
    1e9d:	81 e2 ff 00 00 00    	and    edx,0xff
    1ea3:	89 c3                	mov    ebx,eax
    1ea5:	81 e3 ff ff 0f 00    	and    ebx,0xfffff
    1eab:	89 de                	mov    esi,ebx
    1ead:	c1 e6 0c             	shl    esi,0xc
    1eb0:	8b 19                	mov    ebx,DWORD PTR [ecx]
    1eb2:	81 e3 ff 0f 00 00    	and    ebx,0xfff
    1eb8:	09 f3                	or     ebx,esi
    1eba:	89 19                	mov    DWORD PTR [ecx],ebx
    1ebc:	89 c3                	mov    ebx,eax
    1ebe:	c1 eb 14             	shr    ebx,0x14
    1ec1:	89 de                	mov    esi,ebx
    1ec3:	66 81 e6 ff 0f       	and    si,0xfff
    1ec8:	0f b7 59 04          	movzx  ebx,WORD PTR [ecx+0x4]
    1ecc:	66 81 e3 00 f0       	and    bx,0xf000
    1ed1:	09 f3                	or     ebx,esi
    1ed3:	66 89 59 04          	mov    WORD PTR [ecx+0x4],bx
    1ed7:	0f b6 c2             	movzx  eax,dl
    1eda:	c1 e0 0c             	shl    eax,0xc
    1edd:	89 c2                	mov    edx,eax
    1edf:	8b 41 04             	mov    eax,DWORD PTR [ecx+0x4]
    1ee2:	25 ff 0f f0 ff       	and    eax,0xfff00fff
    1ee7:	09 d0                	or     eax,edx
    1ee9:	89 41 04             	mov    DWORD PTR [ecx+0x4],eax

		/* create PT pointer containers */
		mm_alloc_pm(1, &pr, 1);
    1eec:	83 ec 04             	sub    esp,0x4
    1eef:	6a 01                	push   0x1
    1ef1:	8d 45 a0             	lea    eax,[ebp-0x60]
    1ef4:	50                   	push   eax
    1ef5:	6a 01                	push   0x1
    1ef7:	e8 fc ff ff ff       	call   1ef8 <mm_pg64_init+0x4c5>
    1efc:	83 c4 10             	add    esp,0x10
		n1 = (void*)(size_t)pr.base;
    1eff:	8b 45 a0             	mov    eax,DWORD PTR [ebp-0x60]
    1f02:	8b 55 a4             	mov    edx,DWORD PTR [ebp-0x5c]
    1f05:	89 45 c8             	mov    DWORD PTR [ebp-0x38],eax
		m1->pdes[0] = vp->cur; // 6 -> 19
    1f08:	8b 45 f0             	mov    eax,DWORD PTR [ebp-0x10]
    1f0b:	8b 50 04             	mov    edx,DWORD PTR [eax+0x4]
    1f0e:	8b 00                	mov    eax,DWORD PTR [eax]
    1f10:	8b 4d d8             	mov    ecx,DWORD PTR [ebp-0x28]
    1f13:	89 81 00 10 00 00    	mov    DWORD PTR [ecx+0x1000],eax
    1f19:	89 91 04 10 00 00    	mov    DWORD PTR [ecx+0x1004],edx
		vp->cur -= 4096;
    1f1f:	8b 45 f0             	mov    eax,DWORD PTR [ebp-0x10]
    1f22:	8b 50 04             	mov    edx,DWORD PTR [eax+0x4]
    1f25:	8b 00                	mov    eax,DWORD PTR [eax]
    1f27:	05 00 f0 ff ff       	add    eax,0xfffff000
    1f2c:	83 d2 ff             	adc    edx,0xffffffff
    1f2f:	8b 4d f0             	mov    ecx,DWORD PTR [ebp-0x10]
    1f32:	89 01                	mov    DWORD PTR [ecx],eax
    1f34:	89 51 04             	mov    DWORD PTR [ecx+0x4],edx
		mm_alloc_pm(1, &pr, 1);
    1f37:	83 ec 04             	sub    esp,0x4
    1f3a:	6a 01                	push   0x1
    1f3c:	8d 45 a0             	lea    eax,[ebp-0x60]
    1f3f:	50                   	push   eax
    1f40:	6a 01                	push   0x1
    1f42:	e8 fc ff ff ff       	call   1f43 <mm_pg64_init+0x510>
    1f47:	83 c4 10             	add    esp,0x10
		n2 = (void*)(size_t)pr.base;
    1f4a:	8b 45 a0             	mov    eax,DWORD PTR [ebp-0x60]
    1f4d:	8b 55 a4             	mov    edx,DWORD PTR [ebp-0x5c]
    1f50:	89 45 c4             	mov    DWORD PTR [ebp-0x3c],eax
		m2->pdes[511] = vp->cur; // 5 -> 1a
    1f53:	8b 45 f0             	mov    eax,DWORD PTR [ebp-0x10]
    1f56:	8b 50 04             	mov    edx,DWORD PTR [eax+0x4]
    1f59:	8b 00                	mov    eax,DWORD PTR [eax]
    1f5b:	8b 4d d4             	mov    ecx,DWORD PTR [ebp-0x2c]
    1f5e:	89 81 f8 1f 00 00    	mov    DWORD PTR [ecx+0x1ff8],eax
    1f64:	89 91 fc 1f 00 00    	mov    DWORD PTR [ecx+0x1ffc],edx
		vp->cur -= 4096;
    1f6a:	8b 45 f0             	mov    eax,DWORD PTR [ebp-0x10]
    1f6d:	8b 50 04             	mov    edx,DWORD PTR [eax+0x4]
    1f70:	8b 00                	mov    eax,DWORD PTR [eax]
    1f72:	05 00 f0 ff ff       	add    eax,0xfffff000
    1f77:	83 d2 ff             	adc    edx,0xffffffff
    1f7a:	8b 4d f0             	mov    ecx,DWORD PTR [ebp-0x10]
    1f7d:	89 01                	mov    DWORD PTR [ecx],eax
    1f7f:	89 51 04             	mov    DWORD PTR [ecx+0x4],edx

		/* now create PTs */
		/* one for the first 2MiB */
		mm_alloc_pm(1, &pr, 1);
    1f82:	83 ec 04             	sub    esp,0x4
    1f85:	6a 01                	push   0x1
    1f87:	8d 45 a0             	lea    eax,[ebp-0x60]
    1f8a:	50                   	push   eax
    1f8b:	6a 01                	push   0x1
    1f8d:	e8 fc ff ff ff       	call   1f8e <mm_pg64_init+0x55b>
    1f92:	83 c4 10             	add    esp,0x10
		pt1 = (void*)(size_t)pr.base;
    1f95:	8b 45 a0             	mov    eax,DWORD PTR [ebp-0x60]
    1f98:	8b 55 a4             	mov    edx,DWORD PTR [ebp-0x5c]
    1f9b:	89 45 c0             	mov    DWORD PTR [ebp-0x40],eax
		n1->pts[0] = vp->cur; // 4 -> 1b
    1f9e:	8b 45 f0             	mov    eax,DWORD PTR [ebp-0x10]
    1fa1:	8b 50 04             	mov    edx,DWORD PTR [eax+0x4]
    1fa4:	8b 00                	mov    eax,DWORD PTR [eax]
    1fa6:	8b 4d c8             	mov    ecx,DWORD PTR [ebp-0x38]
    1fa9:	89 01                	mov    DWORD PTR [ecx],eax
    1fab:	89 51 04             	mov    DWORD PTR [ecx+0x4],edx
		vp->cur -= 4096;
    1fae:	8b 45 f0             	mov    eax,DWORD PTR [ebp-0x10]
    1fb1:	8b 50 04             	mov    edx,DWORD PTR [eax+0x4]
    1fb4:	8b 00                	mov    eax,DWORD PTR [eax]
    1fb6:	05 00 f0 ff ff       	add    eax,0xfffff000
    1fbb:	83 d2 ff             	adc    edx,0xffffffff
    1fbe:	8b 4d f0             	mov    ecx,DWORD PTR [ebp-0x10]
    1fc1:	89 01                	mov    DWORD PTR [ecx],eax
    1fc3:	89 51 04             	mov    DWORD PTR [ecx+0x4],edx
		/* and one for the last two */
		mm_alloc_pm(1, &pr, 1);
    1fc6:	83 ec 04             	sub    esp,0x4
    1fc9:	6a 01                	push   0x1
    1fcb:	8d 45 a0             	lea    eax,[ebp-0x60]
    1fce:	50                   	push   eax
    1fcf:	6a 01                	push   0x1
    1fd1:	e8 fc ff ff ff       	call   1fd2 <mm_pg64_init+0x59f>
    1fd6:	83 c4 10             	add    esp,0x10
		pt2 = (void*)(size_t)pr.base;
    1fd9:	8b 45 a0             	mov    eax,DWORD PTR [ebp-0x60]
    1fdc:	8b 55 a4             	mov    edx,DWORD PTR [ebp-0x5c]
    1fdf:	89 45 bc             	mov    DWORD PTR [ebp-0x44],eax
		n2->pts[511] = vp->cur; // 3 -> 1c
    1fe2:	8b 45 f0             	mov    eax,DWORD PTR [ebp-0x10]
    1fe5:	8b 50 04             	mov    edx,DWORD PTR [eax+0x4]
    1fe8:	8b 00                	mov    eax,DWORD PTR [eax]
    1fea:	8b 4d c4             	mov    ecx,DWORD PTR [ebp-0x3c]
    1fed:	89 81 f8 0f 00 00    	mov    DWORD PTR [ecx+0xff8],eax
    1ff3:	89 91 fc 0f 00 00    	mov    DWORD PTR [ecx+0xffc],edx
		vp->cur -= 4096;
    1ff9:	8b 45 f0             	mov    eax,DWORD PTR [ebp-0x10]
    1ffc:	8b 50 04             	mov    edx,DWORD PTR [eax+0x4]
    1fff:	8b 00                	mov    eax,DWORD PTR [eax]
    2001:	05 00 f0 ff ff       	add    eax,0xfffff000
    2006:	83 d2 ff             	adc    edx,0xffffffff
    2009:	8b 4d f0             	mov    ecx,DWORD PTR [ebp-0x10]
    200c:	89 01                	mov    DWORD PTR [ecx],eax
    200e:	89 51 04             	mov    DWORD PTR [ecx+0x4],edx

		/* register them in the directories */
		pl1[0].p = 1;
    2011:	8b 45 d0             	mov    eax,DWORD PTR [ebp-0x30]
    2014:	0f b6 10             	movzx  edx,BYTE PTR [eax]
    2017:	83 ca 01             	or     edx,0x1
    201a:	88 10                	mov    BYTE PTR [eax],dl
		pl1[0].w = 1;
    201c:	8b 45 d0             	mov    eax,DWORD PTR [ebp-0x30]
    201f:	0f b6 10             	movzx  edx,BYTE PTR [eax]
    2022:	83 ca 02             	or     edx,0x2
    2025:	88 10                	mov    BYTE PTR [eax],dl
		pl1[0].u = 1;
    2027:	8b 45 d0             	mov    eax,DWORD PTR [ebp-0x30]
    202a:	0f b6 10             	movzx  edx,BYTE PTR [eax]
    202d:	83 ca 04             	or     edx,0x4
    2030:	88 10                	mov    BYTE PTR [eax],dl
		pl1[0].addr = (size_t)pt1 / 4096;
    2032:	8b 45 c0             	mov    eax,DWORD PTR [ebp-0x40]
    2035:	c1 e8 0c             	shr    eax,0xc
    2038:	ba 00 00 00 00       	mov    edx,0x0
    203d:	81 e2 ff 00 00 00    	and    edx,0xff
    2043:	8b 4d d0             	mov    ecx,DWORD PTR [ebp-0x30]
    2046:	89 c3                	mov    ebx,eax
    2048:	81 e3 ff ff 0f 00    	and    ebx,0xfffff
    204e:	89 de                	mov    esi,ebx
    2050:	c1 e6 0c             	shl    esi,0xc
    2053:	8b 19                	mov    ebx,DWORD PTR [ecx]
    2055:	81 e3 ff 0f 00 00    	and    ebx,0xfff
    205b:	09 f3                	or     ebx,esi
    205d:	89 19                	mov    DWORD PTR [ecx],ebx
    205f:	89 c3                	mov    ebx,eax
    2061:	c1 eb 14             	shr    ebx,0x14
    2064:	89 de                	mov    esi,ebx
    2066:	66 81 e6 ff 0f       	and    si,0xfff
    206b:	0f b7 59 04          	movzx  ebx,WORD PTR [ecx+0x4]
    206f:	66 81 e3 00 f0       	and    bx,0xf000
    2074:	09 f3                	or     ebx,esi
    2076:	66 89 59 04          	mov    WORD PTR [ecx+0x4],bx
    207a:	0f b6 c2             	movzx  eax,dl
    207d:	c1 e0 0c             	shl    eax,0xc
    2080:	89 c2                	mov    edx,eax
    2082:	8b 41 04             	mov    eax,DWORD PTR [ecx+0x4]
    2085:	25 ff 0f f0 ff       	and    eax,0xfff00fff
    208a:	09 d0                	or     eax,edx
    208c:	89 41 04             	mov    DWORD PTR [ecx+0x4],eax
		pl2[511].p = 1;
    208f:	8b 45 cc             	mov    eax,DWORD PTR [ebp-0x34]
    2092:	05 f8 0f 00 00       	add    eax,0xff8
    2097:	0f b6 10             	movzx  edx,BYTE PTR [eax]
    209a:	83 ca 01             	or     edx,0x1
    209d:	88 10                	mov    BYTE PTR [eax],dl
		pl2[511].w = 1;
    209f:	8b 45 cc             	mov    eax,DWORD PTR [ebp-0x34]
    20a2:	05 f8 0f 00 00       	add    eax,0xff8
    20a7:	0f b6 10             	movzx  edx,BYTE PTR [eax]
    20aa:	83 ca 02             	or     edx,0x2
    20ad:	88 10                	mov    BYTE PTR [eax],dl
		pl2[511].u = 1;
    20af:	8b 45 cc             	mov    eax,DWORD PTR [ebp-0x34]
    20b2:	05 f8 0f 00 00       	add    eax,0xff8
    20b7:	0f b6 10             	movzx  edx,BYTE PTR [eax]
    20ba:	83 ca 04             	or     edx,0x4
    20bd:	88 10                	mov    BYTE PTR [eax],dl
		pl2[511].addr = (size_t)pt2 / 4096;
    20bf:	8b 45 bc             	mov    eax,DWORD PTR [ebp-0x44]
    20c2:	c1 e8 0c             	shr    eax,0xc
    20c5:	89 c2                	mov    edx,eax
    20c7:	8b 45 cc             	mov    eax,DWORD PTR [ebp-0x34]
    20ca:	8d 88 f8 0f 00 00    	lea    ecx,[eax+0xff8]
    20d0:	89 d0                	mov    eax,edx
    20d2:	ba 00 00 00 00       	mov    edx,0x0
    20d7:	81 e2 ff 00 00 00    	and    edx,0xff
    20dd:	89 c3                	mov    ebx,eax
    20df:	81 e3 ff ff 0f 00    	and    ebx,0xfffff
    20e5:	89 de                	mov    esi,ebx
    20e7:	c1 e6 0c             	shl    esi,0xc
    20ea:	8b 19                	mov    ebx,DWORD PTR [ecx]
    20ec:	81 e3 ff 0f 00 00    	and    ebx,0xfff
    20f2:	09 f3                	or     ebx,esi
    20f4:	89 19                	mov    DWORD PTR [ecx],ebx
    20f6:	89 c3                	mov    ebx,eax
    20f8:	c1 eb 14             	shr    ebx,0x14
    20fb:	89 de                	mov    esi,ebx
    20fd:	66 81 e6 ff 0f       	and    si,0xfff
    2102:	0f b7 59 04          	movzx  ebx,WORD PTR [ecx+0x4]
    2106:	66 81 e3 00 f0       	and    bx,0xf000
    210b:	09 f3                	or     ebx,esi
    210d:	66 89 59 04          	mov    WORD PTR [ecx+0x4],bx
    2111:	0f b6 c2             	movzx  eax,dl
    2114:	c1 e0 0c             	shl    eax,0xc
    2117:	89 c2                	mov    edx,eax
    2119:	8b 41 04             	mov    eax,DWORD PTR [ecx+0x4]
    211c:	25 ff 0f f0 ff       	and    eax,0xfff00fff
    2121:	09 d0                	or     eax,edx
    2123:	89 41 04             	mov    DWORD PTR [ecx+0x4],eax

		/* and set the entries */
		for (size_t i = 0; i < 256; i++) {
    2126:	c7 45 f4 00 00 00 00 	mov    DWORD PTR [ebp-0xc],0x0
    212d:	e9 b0 00 00 00       	jmp    21e2 <mm_pg64_init+0x7af>
				/* identity CD */
				pt1[i].p = 1;
    2132:	8b 45 f4             	mov    eax,DWORD PTR [ebp-0xc]
    2135:	8d 14 c5 00 00 00 00 	lea    edx,[eax*8+0x0]
    213c:	8b 45 c0             	mov    eax,DWORD PTR [ebp-0x40]
    213f:	01 d0                	add    eax,edx
    2141:	0f b6 10             	movzx  edx,BYTE PTR [eax]
    2144:	83 ca 01             	or     edx,0x1
    2147:	88 10                	mov    BYTE PTR [eax],dl
				pt1[i].w = 1;
    2149:	8b 45 f4             	mov    eax,DWORD PTR [ebp-0xc]
    214c:	8d 14 c5 00 00 00 00 	lea    edx,[eax*8+0x0]
    2153:	8b 45 c0             	mov    eax,DWORD PTR [ebp-0x40]
    2156:	01 d0                	add    eax,edx
    2158:	0f b6 10             	movzx  edx,BYTE PTR [eax]
    215b:	83 ca 02             	or     edx,0x2
    215e:	88 10                	mov    BYTE PTR [eax],dl
				pt1[i].u = 0;
    2160:	8b 45 f4             	mov    eax,DWORD PTR [ebp-0xc]
    2163:	8d 14 c5 00 00 00 00 	lea    edx,[eax*8+0x0]
    216a:	8b 45 c0             	mov    eax,DWORD PTR [ebp-0x40]
    216d:	01 d0                	add    eax,edx
    216f:	0f b6 10             	movzx  edx,BYTE PTR [eax]
    2172:	83 e2 fb             	and    edx,0xfffffffb
    2175:	88 10                	mov    BYTE PTR [eax],dl
				//pt1[i].xd = 1;
				pt1[i].addr = i; /* identity */
    2177:	8b 45 f4             	mov    eax,DWORD PTR [ebp-0xc]
    217a:	8d 14 c5 00 00 00 00 	lea    edx,[eax*8+0x0]
    2181:	8b 45 c0             	mov    eax,DWORD PTR [ebp-0x40]
    2184:	8d 0c 02             	lea    ecx,[edx+eax*1]
    2187:	8b 45 f4             	mov    eax,DWORD PTR [ebp-0xc]
    218a:	ba 00 00 00 00       	mov    edx,0x0
    218f:	81 e2 ff 00 00 00    	and    edx,0xff
    2195:	89 c3                	mov    ebx,eax
    2197:	81 e3 ff ff 0f 00    	and    ebx,0xfffff
    219d:	89 de                	mov    esi,ebx
    219f:	c1 e6 0c             	shl    esi,0xc
    21a2:	8b 19                	mov    ebx,DWORD PTR [ecx]
    21a4:	81 e3 ff 0f 00 00    	and    ebx,0xfff
    21aa:	09 f3                	or     ebx,esi
    21ac:	89 19                	mov    DWORD PTR [ecx],ebx
    21ae:	89 c3                	mov    ebx,eax
    21b0:	c1 eb 14             	shr    ebx,0x14
    21b3:	89 de                	mov    esi,ebx
    21b5:	66 81 e6 ff 0f       	and    si,0xfff
    21ba:	0f b7 59 04          	movzx  ebx,WORD PTR [ecx+0x4]
    21be:	66 81 e3 00 f0       	and    bx,0xf000
    21c3:	09 f3                	or     ebx,esi
    21c5:	66 89 59 04          	mov    WORD PTR [ecx+0x4],bx
    21c9:	0f b6 c2             	movzx  eax,dl
    21cc:	c1 e0 0c             	shl    eax,0xc
    21cf:	89 c2                	mov    edx,eax
    21d1:	8b 41 04             	mov    eax,DWORD PTR [ecx+0x4]
    21d4:	25 ff 0f f0 ff       	and    eax,0xfff00fff
    21d9:	09 d0                	or     eax,edx
    21db:	89 41 04             	mov    DWORD PTR [ecx+0x4],eax
		for (size_t i = 0; i < 256; i++) {
    21de:	83 45 f4 01          	add    DWORD PTR [ebp-0xc],0x1
    21e2:	81 7d f4 ff 00 00 00 	cmp    DWORD PTR [ebp-0xc],0xff
    21e9:	0f 86 43 ff ff ff    	jbe    2132 <mm_pg64_init+0x6ff>
		}

		/* now do the paging-structures mapping stored in vp,m,n */
		uint64_t bse = 0xffffffffffe00000; /* base of last PD used to calculate idx */
    21ef:	c7 45 b0 00 00 e0 ff 	mov    DWORD PTR [ebp-0x50],0xffe00000
    21f6:	c7 45 b4 ff ff ff ff 	mov    DWORD PTR [ebp-0x4c],0xffffffff
		size_t idx;
		/* first the PML4 */
		idx = (vp->pml4 - bse) / 4096;
    21fd:	8b 45 f0             	mov    eax,DWORD PTR [ebp-0x10]
    2200:	8b 50 0c             	mov    edx,DWORD PTR [eax+0xc]
    2203:	8b 40 08             	mov    eax,DWORD PTR [eax+0x8]
    2206:	2b 45 b0             	sub    eax,DWORD PTR [ebp-0x50]
    2209:	1b 55 b4             	sbb    edx,DWORD PTR [ebp-0x4c]
    220c:	0f ac d0 0c          	shrd   eax,edx,0xc
    2210:	c1 ea 0c             	shr    edx,0xc
    2213:	89 45 ac             	mov    DWORD PTR [ebp-0x54],eax
		pt2[idx].p = 1;
    2216:	8b 45 ac             	mov    eax,DWORD PTR [ebp-0x54]
    2219:	8d 14 c5 00 00 00 00 	lea    edx,[eax*8+0x0]
    2220:	8b 45 bc             	mov    eax,DWORD PTR [ebp-0x44]
    2223:	01 d0                	add    eax,edx
    2225:	0f b6 10             	movzx  edx,BYTE PTR [eax]
    2228:	83 ca 01             	or     edx,0x1
    222b:	88 10                	mov    BYTE PTR [eax],dl
		pt2[idx].w = 1;
    222d:	8b 45 ac             	mov    eax,DWORD PTR [ebp-0x54]
    2230:	8d 14 c5 00 00 00 00 	lea    edx,[eax*8+0x0]
    2237:	8b 45 bc             	mov    eax,DWORD PTR [ebp-0x44]
    223a:	01 d0                	add    eax,edx
    223c:	0f b6 10             	movzx  edx,BYTE PTR [eax]
    223f:	83 ca 02             	or     edx,0x2
    2242:	88 10                	mov    BYTE PTR [eax],dl
		pt2[idx].u = 0; /* only supervisor access to pts */
    2244:	8b 45 ac             	mov    eax,DWORD PTR [ebp-0x54]
    2247:	8d 14 c5 00 00 00 00 	lea    edx,[eax*8+0x0]
    224e:	8b 45 bc             	mov    eax,DWORD PTR [ebp-0x44]
    2251:	01 d0                	add    eax,edx
    2253:	0f b6 10             	movzx  edx,BYTE PTR [eax]
    2256:	83 e2 fb             	and    edx,0xfffffffb
    2259:	88 10                	mov    BYTE PTR [eax],dl
		pt2[idx].addr = cr3_val / 4096;
    225b:	a1 00 00 00 00       	mov    eax,ds:0x0
    2260:	8b 15 04 00 00 00    	mov    edx,DWORD PTR ds:0x4
    2266:	0f ac d0 0c          	shrd   eax,edx,0xc
    226a:	c1 ea 0c             	shr    edx,0xc
    226d:	8b 4d ac             	mov    ecx,DWORD PTR [ebp-0x54]
    2270:	8d 1c cd 00 00 00 00 	lea    ebx,[ecx*8+0x0]
    2277:	8b 4d bc             	mov    ecx,DWORD PTR [ebp-0x44]
    227a:	01 d9                	add    ecx,ebx
    227c:	81 e2 ff 00 00 00    	and    edx,0xff
    2282:	89 c3                	mov    ebx,eax
    2284:	81 e3 ff ff 0f 00    	and    ebx,0xfffff
    228a:	89 de                	mov    esi,ebx
    228c:	c1 e6 0c             	shl    esi,0xc
    228f:	8b 19                	mov    ebx,DWORD PTR [ecx]
    2291:	81 e3 ff 0f 00 00    	and    ebx,0xfff
    2297:	09 f3                	or     ebx,esi
    2299:	89 19                	mov    DWORD PTR [ecx],ebx
    229b:	89 c3                	mov    ebx,eax
    229d:	c1 eb 14             	shr    ebx,0x14
    22a0:	89 de                	mov    esi,ebx
    22a2:	66 81 e6 ff 0f       	and    si,0xfff
    22a7:	0f b7 59 04          	movzx  ebx,WORD PTR [ecx+0x4]
    22ab:	66 81 e3 00 f0       	and    bx,0xf000
    22b0:	09 f3                	or     ebx,esi
    22b2:	66 89 59 04          	mov    WORD PTR [ecx+0x4],bx
    22b6:	0f b6 c2             	movzx  eax,dl
    22b9:	c1 e0 0c             	shl    eax,0xc
    22bc:	89 c2                	mov    edx,eax
    22be:	8b 41 04             	mov    eax,DWORD PTR [ecx+0x4]
    22c1:	25 ff 0f f0 ff       	and    eax,0xfff00fff
    22c6:	09 d0                	or     eax,edx
    22c8:	89 41 04             	mov    DWORD PTR [ecx+0x4],eax
		pt2[idx].xd = (has_nx ? 1 : 0);
    22cb:	8b 15 00 00 00 00    	mov    edx,DWORD PTR ds:0x0
    22d1:	8b 45 ac             	mov    eax,DWORD PTR [ebp-0x54]
    22d4:	8d 0c c5 00 00 00 00 	lea    ecx,[eax*8+0x0]
    22db:	8b 45 bc             	mov    eax,DWORD PTR [ebp-0x44]
    22de:	01 c8                	add    eax,ecx
    22e0:	85 d2                	test   edx,edx
    22e2:	0f 95 c2             	setne  dl
    22e5:	89 d1                	mov    ecx,edx
    22e7:	c1 e1 07             	shl    ecx,0x7
    22ea:	0f b6 50 07          	movzx  edx,BYTE PTR [eax+0x7]
    22ee:	83 e2 7f             	and    edx,0x7f
    22f1:	09 ca                	or     edx,ecx
    22f3:	88 50 07             	mov    BYTE PTR [eax+0x7],dl
		/* vp is identity mapped -> no need for doing sth. (TODO: protection) */		
		/* then the 2 PDPTs */
		idx = (vp->pml4e[0] - bse) / 4096;
    22f6:	8b 45 f0             	mov    eax,DWORD PTR [ebp-0x10]
    22f9:	8b 50 14             	mov    edx,DWORD PTR [eax+0x14]
    22fc:	8b 40 10             	mov    eax,DWORD PTR [eax+0x10]
    22ff:	2b 45 b0             	sub    eax,DWORD PTR [ebp-0x50]
    2302:	1b 55 b4             	sbb    edx,DWORD PTR [ebp-0x4c]
    2305:	0f ac d0 0c          	shrd   eax,edx,0xc
    2309:	c1 ea 0c             	shr    edx,0xc
    230c:	89 45 ac             	mov    DWORD PTR [ebp-0x54],eax
		pt2[idx].p = 1;
    230f:	8b 45 ac             	mov    eax,DWORD PTR [ebp-0x54]
    2312:	8d 14 c5 00 00 00 00 	lea    edx,[eax*8+0x0]
    2319:	8b 45 bc             	mov    eax,DWORD PTR [ebp-0x44]
    231c:	01 d0                	add    eax,edx
    231e:	0f b6 10             	movzx  edx,BYTE PTR [eax]
    2321:	83 ca 01             	or     edx,0x1
    2324:	88 10                	mov    BYTE PTR [eax],dl
		pt2[idx].w = 1;
    2326:	8b 45 ac             	mov    eax,DWORD PTR [ebp-0x54]
    2329:	8d 14 c5 00 00 00 00 	lea    edx,[eax*8+0x0]
    2330:	8b 45 bc             	mov    eax,DWORD PTR [ebp-0x44]
    2333:	01 d0                	add    eax,edx
    2335:	0f b6 10             	movzx  edx,BYTE PTR [eax]
    2338:	83 ca 02             	or     edx,0x2
    233b:	88 10                	mov    BYTE PTR [eax],dl
		pt2[idx].u = 0;
    233d:	8b 45 ac             	mov    eax,DWORD PTR [ebp-0x54]
    2340:	8d 14 c5 00 00 00 00 	lea    edx,[eax*8+0x0]
    2347:	8b 45 bc             	mov    eax,DWORD PTR [ebp-0x44]
    234a:	01 d0                	add    eax,edx
    234c:	0f b6 10             	movzx  edx,BYTE PTR [eax]
    234f:	83 e2 fb             	and    edx,0xfffffffb
    2352:	88 10                	mov    BYTE PTR [eax],dl
		pt2[idx].addr = (uint64_t)p1 / 4096;
    2354:	8b 45 e4             	mov    eax,DWORD PTR [ebp-0x1c]
    2357:	99                   	cdq
    2358:	0f ac d0 0c          	shrd   eax,edx,0xc
    235c:	c1 ea 0c             	shr    edx,0xc
    235f:	8b 4d ac             	mov    ecx,DWORD PTR [ebp-0x54]
    2362:	8d 1c cd 00 00 00 00 	lea    ebx,[ecx*8+0x0]
    2369:	8b 4d bc             	mov    ecx,DWORD PTR [ebp-0x44]
    236c:	01 d9                	add    ecx,ebx
    236e:	81 e2 ff 00 00 00    	and    edx,0xff
    2374:	89 c3                	mov    ebx,eax
    2376:	81 e3 ff ff 0f 00    	and    ebx,0xfffff
    237c:	89 de                	mov    esi,ebx
    237e:	c1 e6 0c             	shl    esi,0xc
    2381:	8b 19                	mov    ebx,DWORD PTR [ecx]
    2383:	81 e3 ff 0f 00 00    	and    ebx,0xfff
    2389:	09 f3                	or     ebx,esi
    238b:	89 19                	mov    DWORD PTR [ecx],ebx
    238d:	89 c3                	mov    ebx,eax
    238f:	c1 eb 14             	shr    ebx,0x14
    2392:	89 de                	mov    esi,ebx
    2394:	66 81 e6 ff 0f       	and    si,0xfff
    2399:	0f b7 59 04          	movzx  ebx,WORD PTR [ecx+0x4]
    239d:	66 81 e3 00 f0       	and    bx,0xf000
    23a2:	09 f3                	or     ebx,esi
    23a4:	66 89 59 04          	mov    WORD PTR [ecx+0x4],bx
    23a8:	0f b6 c2             	movzx  eax,dl
    23ab:	c1 e0 0c             	shl    eax,0xc
    23ae:	89 c2                	mov    edx,eax
    23b0:	8b 41 04             	mov    eax,DWORD PTR [ecx+0x4]
    23b3:	25 ff 0f f0 ff       	and    eax,0xfff00fff
    23b8:	09 d0                	or     eax,edx
    23ba:	89 41 04             	mov    DWORD PTR [ecx+0x4],eax
		pt2[idx].xd = (has_nx ? 1 : 0);
    23bd:	8b 15 00 00 00 00    	mov    edx,DWORD PTR ds:0x0
    23c3:	8b 45 ac             	mov    eax,DWORD PTR [ebp-0x54]
    23c6:	8d 0c c5 00 00 00 00 	lea    ecx,[eax*8+0x0]
    23cd:	8b 45 bc             	mov    eax,DWORD PTR [ebp-0x44]
    23d0:	01 c8                	add    eax,ecx
    23d2:	85 d2                	test   edx,edx
    23d4:	0f 95 c2             	setne  dl
    23d7:	89 d1                	mov    ecx,edx
    23d9:	c1 e1 07             	shl    ecx,0x7
    23dc:	0f b6 50 07          	movzx  edx,BYTE PTR [eax+0x7]
    23e0:	83 e2 7f             	and    edx,0x7f
    23e3:	09 ca                	or     edx,ecx
    23e5:	88 50 07             	mov    BYTE PTR [eax+0x7],dl
		idx = (vp->pml4e[511] - bse) / 4096;
    23e8:	8b 45 f0             	mov    eax,DWORD PTR [ebp-0x10]
    23eb:	8b 90 0c 10 00 00    	mov    edx,DWORD PTR [eax+0x100c]
    23f1:	8b 80 08 10 00 00    	mov    eax,DWORD PTR [eax+0x1008]
    23f7:	2b 45 b0             	sub    eax,DWORD PTR [ebp-0x50]
    23fa:	1b 55 b4             	sbb    edx,DWORD PTR [ebp-0x4c]
    23fd:	0f ac d0 0c          	shrd   eax,edx,0xc
    2401:	c1 ea 0c             	shr    edx,0xc
    2404:	89 45 ac             	mov    DWORD PTR [ebp-0x54],eax
		pt2[idx].p = 1;
    2407:	8b 45 ac             	mov    eax,DWORD PTR [ebp-0x54]
    240a:	8d 14 c5 00 00 00 00 	lea    edx,[eax*8+0x0]
    2411:	8b 45 bc             	mov    eax,DWORD PTR [ebp-0x44]
    2414:	01 d0                	add    eax,edx
    2416:	0f b6 10             	movzx  edx,BYTE PTR [eax]
    2419:	83 ca 01             	or     edx,0x1
    241c:	88 10                	mov    BYTE PTR [eax],dl
		pt2[idx].w = 1;
    241e:	8b 45 ac             	mov    eax,DWORD PTR [ebp-0x54]
    2421:	8d 14 c5 00 00 00 00 	lea    edx,[eax*8+0x0]
    2428:	8b 45 bc             	mov    eax,DWORD PTR [ebp-0x44]
    242b:	01 d0                	add    eax,edx
    242d:	0f b6 10             	movzx  edx,BYTE PTR [eax]
    2430:	83 ca 02             	or     edx,0x2
    2433:	88 10                	mov    BYTE PTR [eax],dl
		pt2[idx].u = 0;
    2435:	8b 45 ac             	mov    eax,DWORD PTR [ebp-0x54]
    2438:	8d 14 c5 00 00 00 00 	lea    edx,[eax*8+0x0]
    243f:	8b 45 bc             	mov    eax,DWORD PTR [ebp-0x44]
    2442:	01 d0                	add    eax,edx
    2444:	0f b6 10             	movzx  edx,BYTE PTR [eax]
    2447:	83 e2 fb             	and    edx,0xfffffffb
    244a:	88 10                	mov    BYTE PTR [eax],dl
		pt2[idx].addr = (uint64_t)p2 / 4096;
    244c:	8b 45 e0             	mov    eax,DWORD PTR [ebp-0x20]
    244f:	99                   	cdq
    2450:	0f ac d0 0c          	shrd   eax,edx,0xc
    2454:	c1 ea 0c             	shr    edx,0xc
    2457:	8b 4d ac             	mov    ecx,DWORD PTR [ebp-0x54]
    245a:	8d 1c cd 00 00 00 00 	lea    ebx,[ecx*8+0x0]
    2461:	8b 4d bc             	mov    ecx,DWORD PTR [ebp-0x44]
    2464:	01 d9                	add    ecx,ebx
    2466:	81 e2 ff 00 00 00    	and    edx,0xff
    246c:	89 c3                	mov    ebx,eax
    246e:	81 e3 ff ff 0f 00    	and    ebx,0xfffff
    2474:	89 de                	mov    esi,ebx
    2476:	c1 e6 0c             	shl    esi,0xc
    2479:	8b 19                	mov    ebx,DWORD PTR [ecx]
    247b:	81 e3 ff 0f 00 00    	and    ebx,0xfff
    2481:	09 f3                	or     ebx,esi
    2483:	89 19                	mov    DWORD PTR [ecx],ebx
    2485:	89 c3                	mov    ebx,eax
    2487:	c1 eb 14             	shr    ebx,0x14
    248a:	89 de                	mov    esi,ebx
    248c:	66 81 e6 ff 0f       	and    si,0xfff
    2491:	0f b7 59 04          	movzx  ebx,WORD PTR [ecx+0x4]
    2495:	66 81 e3 00 f0       	and    bx,0xf000
    249a:	09 f3                	or     ebx,esi
    249c:	66 89 59 04          	mov    WORD PTR [ecx+0x4],bx
    24a0:	0f b6 c2             	movzx  eax,dl
    24a3:	c1 e0 0c             	shl    eax,0xc
    24a6:	89 c2                	mov    edx,eax
    24a8:	8b 41 04             	mov    eax,DWORD PTR [ecx+0x4]
    24ab:	25 ff 0f f0 ff       	and    eax,0xfff00fff
    24b0:	09 d0                	or     eax,edx
    24b2:	89 41 04             	mov    DWORD PTR [ecx+0x4],eax
		pt2[idx].xd = (has_nx ? 1 : 0);
    24b5:	8b 15 00 00 00 00    	mov    edx,DWORD PTR ds:0x0
    24bb:	8b 45 ac             	mov    eax,DWORD PTR [ebp-0x54]
    24be:	8d 0c c5 00 00 00 00 	lea    ecx,[eax*8+0x0]
    24c5:	8b 45 bc             	mov    eax,DWORD PTR [ebp-0x44]
    24c8:	01 c8                	add    eax,ecx
    24ca:	85 d2                	test   edx,edx
    24cc:	0f 95 c2             	setne  dl
    24cf:	89 d1                	mov    ecx,edx
    24d1:	c1 e1 07             	shl    ecx,0x7
    24d4:	0f b6 50 07          	movzx  edx,BYTE PTR [eax+0x7]
    24d8:	83 e2 7f             	and    edx,0x7f
    24db:	09 ca                	or     edx,ecx
    24dd:	88 50 07             	mov    BYTE PTR [eax+0x7],dl
		/* now the two container structures (each 2 pages size, for PDPTEs(PDs & PDEs)) */
		idx = (vp->pdpte[0] - bse) / 4096;	
    24e0:	8b 45 f0             	mov    eax,DWORD PTR [ebp-0x10]
    24e3:	8b 90 14 10 00 00    	mov    edx,DWORD PTR [eax+0x1014]
    24e9:	8b 80 10 10 00 00    	mov    eax,DWORD PTR [eax+0x1010]
    24ef:	2b 45 b0             	sub    eax,DWORD PTR [ebp-0x50]
    24f2:	1b 55 b4             	sbb    edx,DWORD PTR [ebp-0x4c]
    24f5:	0f ac d0 0c          	shrd   eax,edx,0xc
    24f9:	c1 ea 0c             	shr    edx,0xc
    24fc:	89 45 ac             	mov    DWORD PTR [ebp-0x54],eax
		pt2[idx].p = 1;
    24ff:	8b 45 ac             	mov    eax,DWORD PTR [ebp-0x54]
    2502:	8d 14 c5 00 00 00 00 	lea    edx,[eax*8+0x0]
    2509:	8b 45 bc             	mov    eax,DWORD PTR [ebp-0x44]
    250c:	01 d0                	add    eax,edx
    250e:	0f b6 10             	movzx  edx,BYTE PTR [eax]
    2511:	83 ca 01             	or     edx,0x1
    2514:	88 10                	mov    BYTE PTR [eax],dl
		pt2[idx].w = 1;
    2516:	8b 45 ac             	mov    eax,DWORD PTR [ebp-0x54]
    2519:	8d 14 c5 00 00 00 00 	lea    edx,[eax*8+0x0]
    2520:	8b 45 bc             	mov    eax,DWORD PTR [ebp-0x44]
    2523:	01 d0                	add    eax,edx
    2525:	0f b6 10             	movzx  edx,BYTE PTR [eax]
    2528:	83 ca 02             	or     edx,0x2
    252b:	88 10                	mov    BYTE PTR [eax],dl
		pt2[idx].u = 0;
    252d:	8b 45 ac             	mov    eax,DWORD PTR [ebp-0x54]
    2530:	8d 14 c5 00 00 00 00 	lea    edx,[eax*8+0x0]
    2537:	8b 45 bc             	mov    eax,DWORD PTR [ebp-0x44]
    253a:	01 d0                	add    eax,edx
    253c:	0f b6 10             	movzx  edx,BYTE PTR [eax]
    253f:	83 e2 fb             	and    edx,0xfffffffb
    2542:	88 10                	mov    BYTE PTR [eax],dl
		pt2[idx].addr = (uint64_t)m1 / 4096;
    2544:	8b 45 d8             	mov    eax,DWORD PTR [ebp-0x28]
    2547:	99                   	cdq
    2548:	0f ac d0 0c          	shrd   eax,edx,0xc
    254c:	c1 ea 0c             	shr    edx,0xc
    254f:	8b 4d ac             	mov    ecx,DWORD PTR [ebp-0x54]
    2552:	8d 1c cd 00 00 00 00 	lea    ebx,[ecx*8+0x0]
    2559:	8b 4d bc             	mov    ecx,DWORD PTR [ebp-0x44]
    255c:	01 d9                	add    ecx,ebx
    255e:	81 e2 ff 00 00 00    	and    edx,0xff
    2564:	89 c3                	mov    ebx,eax
    2566:	81 e3 ff ff 0f 00    	and    ebx,0xfffff
    256c:	89 de                	mov    esi,ebx
    256e:	c1 e6 0c             	shl    esi,0xc
    2571:	8b 19                	mov    ebx,DWORD PTR [ecx]
    2573:	81 e3 ff 0f 00 00    	and    ebx,0xfff
    2579:	09 f3                	or     ebx,esi
    257b:	89 19                	mov    DWORD PTR [ecx],ebx
    257d:	89 c3                	mov    ebx,eax
    257f:	c1 eb 14             	shr    ebx,0x14
    2582:	89 de                	mov    esi,ebx
    2584:	66 81 e6 ff 0f       	and    si,0xfff
    2589:	0f b7 59 04          	movzx  ebx,WORD PTR [ecx+0x4]
    258d:	66 81 e3 00 f0       	and    bx,0xf000
    2592:	09 f3                	or     ebx,esi
    2594:	66 89 59 04          	mov    WORD PTR [ecx+0x4],bx
    2598:	0f b6 c2             	movzx  eax,dl
    259b:	c1 e0 0c             	shl    eax,0xc
    259e:	89 c2                	mov    edx,eax
    25a0:	8b 41 04             	mov    eax,DWORD PTR [ecx+0x4]
    25a3:	25 ff 0f f0 ff       	and    eax,0xfff00fff
    25a8:	09 d0                	or     eax,edx
    25aa:	89 41 04             	mov    DWORD PTR [ecx+0x4],eax
		pt2[idx].xd = (has_nx ? 1 : 0);
    25ad:	8b 15 00 00 00 00    	mov    edx,DWORD PTR ds:0x0
    25b3:	8b 45 ac             	mov    eax,DWORD PTR [ebp-0x54]
    25b6:	8d 0c c5 00 00 00 00 	lea    ecx,[eax*8+0x0]
    25bd:	8b 45 bc             	mov    eax,DWORD PTR [ebp-0x44]
    25c0:	01 c8                	add    eax,ecx
    25c2:	85 d2                	test   edx,edx
    25c4:	0f 95 c2             	setne  dl
    25c7:	89 d1                	mov    ecx,edx
    25c9:	c1 e1 07             	shl    ecx,0x7
    25cc:	0f b6 50 07          	movzx  edx,BYTE PTR [eax+0x7]
    25d0:	83 e2 7f             	and    edx,0x7f
    25d3:	09 ca                	or     edx,ecx
    25d5:	88 50 07             	mov    BYTE PTR [eax+0x7],dl
		pt2[idx + 1].p = 1;
    25d8:	8b 45 ac             	mov    eax,DWORD PTR [ebp-0x54]
    25db:	83 c0 01             	add    eax,0x1
    25de:	8d 14 c5 00 00 00 00 	lea    edx,[eax*8+0x0]
    25e5:	8b 45 bc             	mov    eax,DWORD PTR [ebp-0x44]
    25e8:	01 d0                	add    eax,edx
    25ea:	0f b6 10             	movzx  edx,BYTE PTR [eax]
    25ed:	83 ca 01             	or     edx,0x1
    25f0:	88 10                	mov    BYTE PTR [eax],dl
		pt2[idx + 1].w = 1;
    25f2:	8b 45 ac             	mov    eax,DWORD PTR [ebp-0x54]
    25f5:	83 c0 01             	add    eax,0x1
    25f8:	8d 14 c5 00 00 00 00 	lea    edx,[eax*8+0x0]
    25ff:	8b 45 bc             	mov    eax,DWORD PTR [ebp-0x44]
    2602:	01 d0                	add    eax,edx
    2604:	0f b6 10             	movzx  edx,BYTE PTR [eax]
    2607:	83 ca 02             	or     edx,0x2
    260a:	88 10                	mov    BYTE PTR [eax],dl
		pt2[idx + 1].u = 0;
    260c:	8b 45 ac             	mov    eax,DWORD PTR [ebp-0x54]
    260f:	83 c0 01             	add    eax,0x1
    2612:	8d 14 c5 00 00 00 00 	lea    edx,[eax*8+0x0]
    2619:	8b 45 bc             	mov    eax,DWORD PTR [ebp-0x44]
    261c:	01 d0                	add    eax,edx
    261e:	0f b6 10             	movzx  edx,BYTE PTR [eax]
    2621:	83 e2 fb             	and    edx,0xfffffffb
    2624:	88 10                	mov    BYTE PTR [eax],dl
		pt2[idx + 1].addr = (uint64_t)m1 / 4096 + 1;
    2626:	8b 45 d8             	mov    eax,DWORD PTR [ebp-0x28]
    2629:	99                   	cdq
    262a:	0f ac d0 0c          	shrd   eax,edx,0xc
    262e:	c1 ea 0c             	shr    edx,0xc
    2631:	83 c0 01             	add    eax,0x1
    2634:	83 d2 00             	adc    edx,0x0
    2637:	8b 4d ac             	mov    ecx,DWORD PTR [ebp-0x54]
    263a:	83 c1 01             	add    ecx,0x1
    263d:	8d 1c cd 00 00 00 00 	lea    ebx,[ecx*8+0x0]
    2644:	8b 4d bc             	mov    ecx,DWORD PTR [ebp-0x44]
    2647:	01 d9                	add    ecx,ebx
    2649:	81 e2 ff 00 00 00    	and    edx,0xff
    264f:	89 c3                	mov    ebx,eax
    2651:	81 e3 ff ff 0f 00    	and    ebx,0xfffff
    2657:	89 de                	mov    esi,ebx
    2659:	c1 e6 0c             	shl    esi,0xc
    265c:	8b 19                	mov    ebx,DWORD PTR [ecx]
    265e:	81 e3 ff 0f 00 00    	and    ebx,0xfff
    2664:	09 f3                	or     ebx,esi
    2666:	89 19                	mov    DWORD PTR [ecx],ebx
    2668:	89 c3                	mov    ebx,eax
    266a:	c1 eb 14             	shr    ebx,0x14
    266d:	89 de                	mov    esi,ebx
    266f:	66 81 e6 ff 0f       	and    si,0xfff
    2674:	0f b7 59 04          	movzx  ebx,WORD PTR [ecx+0x4]
    2678:	66 81 e3 00 f0       	and    bx,0xf000
    267d:	09 f3                	or     ebx,esi
    267f:	66 89 59 04          	mov    WORD PTR [ecx+0x4],bx
    2683:	0f b6 c2             	movzx  eax,dl
    2686:	c1 e0 0c             	shl    eax,0xc
    2689:	89 c2                	mov    edx,eax
    268b:	8b 41 04             	mov    eax,DWORD PTR [ecx+0x4]
    268e:	25 ff 0f f0 ff       	and    eax,0xfff00fff
    2693:	09 d0                	or     eax,edx
    2695:	89 41 04             	mov    DWORD PTR [ecx+0x4],eax
		pt2[idx + 1].xd = (has_nx ? 1 : 0);
    2698:	8b 15 00 00 00 00    	mov    edx,DWORD PTR ds:0x0
    269e:	8b 45 ac             	mov    eax,DWORD PTR [ebp-0x54]
    26a1:	83 c0 01             	add    eax,0x1
    26a4:	8d 0c c5 00 00 00 00 	lea    ecx,[eax*8+0x0]
    26ab:	8b 45 bc             	mov    eax,DWORD PTR [ebp-0x44]
    26ae:	01 c8                	add    eax,ecx
    26b0:	85 d2                	test   edx,edx
    26b2:	0f 95 c2             	setne  dl
    26b5:	89 d1                	mov    ecx,edx
    26b7:	c1 e1 07             	shl    ecx,0x7
    26ba:	0f b6 50 07          	movzx  edx,BYTE PTR [eax+0x7]
    26be:	83 e2 7f             	and    edx,0x7f
    26c1:	09 ca                	or     edx,ecx
    26c3:	88 50 07             	mov    BYTE PTR [eax+0x7],dl
		idx = (vp->pdpte[511] - bse) / 4096;	
    26c6:	8b 45 f0             	mov    eax,DWORD PTR [ebp-0x10]
    26c9:	8b 90 0c 20 00 00    	mov    edx,DWORD PTR [eax+0x200c]
    26cf:	8b 80 08 20 00 00    	mov    eax,DWORD PTR [eax+0x2008]
    26d5:	2b 45 b0             	sub    eax,DWORD PTR [ebp-0x50]
    26d8:	1b 55 b4             	sbb    edx,DWORD PTR [ebp-0x4c]
    26db:	0f ac d0 0c          	shrd   eax,edx,0xc
    26df:	c1 ea 0c             	shr    edx,0xc
    26e2:	89 45 ac             	mov    DWORD PTR [ebp-0x54],eax
		pt2[idx].p = 1;
    26e5:	8b 45 ac             	mov    eax,DWORD PTR [ebp-0x54]
    26e8:	8d 14 c5 00 00 00 00 	lea    edx,[eax*8+0x0]
    26ef:	8b 45 bc             	mov    eax,DWORD PTR [ebp-0x44]
    26f2:	01 d0                	add    eax,edx
    26f4:	0f b6 10             	movzx  edx,BYTE PTR [eax]
    26f7:	83 ca 01             	or     edx,0x1
    26fa:	88 10                	mov    BYTE PTR [eax],dl
		pt2[idx].w = 1;
    26fc:	8b 45 ac             	mov    eax,DWORD PTR [ebp-0x54]
    26ff:	8d 14 c5 00 00 00 00 	lea    edx,[eax*8+0x0]
    2706:	8b 45 bc             	mov    eax,DWORD PTR [ebp-0x44]
    2709:	01 d0                	add    eax,edx
    270b:	0f b6 10             	movzx  edx,BYTE PTR [eax]
    270e:	83 ca 02             	or     edx,0x2
    2711:	88 10                	mov    BYTE PTR [eax],dl
		pt2[idx].u = 0;
    2713:	8b 45 ac             	mov    eax,DWORD PTR [ebp-0x54]
    2716:	8d 14 c5 00 00 00 00 	lea    edx,[eax*8+0x0]
    271d:	8b 45 bc             	mov    eax,DWORD PTR [ebp-0x44]
    2720:	01 d0                	add    eax,edx
    2722:	0f b6 10             	movzx  edx,BYTE PTR [eax]
    2725:	83 e2 fb             	and    edx,0xfffffffb
    2728:	88 10                	mov    BYTE PTR [eax],dl
		pt2[idx].addr = (uint64_t)m2 / 4096;
    272a:	8b 45 d4             	mov    eax,DWORD PTR [ebp-0x2c]
    272d:	99                   	cdq
    272e:	0f ac d0 0c          	shrd   eax,edx,0xc
    2732:	c1 ea 0c             	shr    edx,0xc
    2735:	8b 4d ac             	mov    ecx,DWORD PTR [ebp-0x54]
    2738:	8d 1c cd 00 00 00 00 	lea    ebx,[ecx*8+0x0]
    273f:	8b 4d bc             	mov    ecx,DWORD PTR [ebp-0x44]
    2742:	01 d9                	add    ecx,ebx
    2744:	81 e2 ff 00 00 00    	and    edx,0xff
    274a:	89 c3                	mov    ebx,eax
    274c:	81 e3 ff ff 0f 00    	and    ebx,0xfffff
    2752:	89 de                	mov    esi,ebx
    2754:	c1 e6 0c             	shl    esi,0xc
    2757:	8b 19                	mov    ebx,DWORD PTR [ecx]
    2759:	81 e3 ff 0f 00 00    	and    ebx,0xfff
    275f:	09 f3                	or     ebx,esi
    2761:	89 19                	mov    DWORD PTR [ecx],ebx
    2763:	89 c3                	mov    ebx,eax
    2765:	c1 eb 14             	shr    ebx,0x14
    2768:	89 de                	mov    esi,ebx
    276a:	66 81 e6 ff 0f       	and    si,0xfff
    276f:	0f b7 59 04          	movzx  ebx,WORD PTR [ecx+0x4]
    2773:	66 81 e3 00 f0       	and    bx,0xf000
    2778:	09 f3                	or     ebx,esi
    277a:	66 89 59 04          	mov    WORD PTR [ecx+0x4],bx
    277e:	0f b6 c2             	movzx  eax,dl
    2781:	c1 e0 0c             	shl    eax,0xc
    2784:	89 c2                	mov    edx,eax
    2786:	8b 41 04             	mov    eax,DWORD PTR [ecx+0x4]
    2789:	25 ff 0f f0 ff       	and    eax,0xfff00fff
    278e:	09 d0                	or     eax,edx
    2790:	89 41 04             	mov    DWORD PTR [ecx+0x4],eax
		pt2[idx].xd = (has_nx ? 1 : 0);
    2793:	8b 15 00 00 00 00    	mov    edx,DWORD PTR ds:0x0
    2799:	8b 45 ac             	mov    eax,DWORD PTR [ebp-0x54]
    279c:	8d 0c c5 00 00 00 00 	lea    ecx,[eax*8+0x0]
    27a3:	8b 45 bc             	mov    eax,DWORD PTR [ebp-0x44]
    27a6:	01 c8                	add    eax,ecx
    27a8:	85 d2                	test   edx,edx
    27aa:	0f 95 c2             	setne  dl
    27ad:	89 d1                	mov    ecx,edx
    27af:	c1 e1 07             	shl    ecx,0x7
    27b2:	0f b6 50 07          	movzx  edx,BYTE PTR [eax+0x7]
    27b6:	83 e2 7f             	and    edx,0x7f
    27b9:	09 ca                	or     edx,ecx
    27bb:	88 50 07             	mov    BYTE PTR [eax+0x7],dl
		pt2[idx + 1].p = 1;
    27be:	8b 45 ac             	mov    eax,DWORD PTR [ebp-0x54]
    27c1:	83 c0 01             	add    eax,0x1
    27c4:	8d 14 c5 00 00 00 00 	lea    edx,[eax*8+0x0]
    27cb:	8b 45 bc             	mov    eax,DWORD PTR [ebp-0x44]
    27ce:	01 d0                	add    eax,edx
    27d0:	0f b6 10             	movzx  edx,BYTE PTR [eax]
    27d3:	83 ca 01             	or     edx,0x1
    27d6:	88 10                	mov    BYTE PTR [eax],dl
		pt2[idx + 1].w = 1;
    27d8:	8b 45 ac             	mov    eax,DWORD PTR [ebp-0x54]
    27db:	83 c0 01             	add    eax,0x1
    27de:	8d 14 c5 00 00 00 00 	lea    edx,[eax*8+0x0]
    27e5:	8b 45 bc             	mov    eax,DWORD PTR [ebp-0x44]
    27e8:	01 d0                	add    eax,edx
    27ea:	0f b6 10             	movzx  edx,BYTE PTR [eax]
    27ed:	83 ca 02             	or     edx,0x2
    27f0:	88 10                	mov    BYTE PTR [eax],dl
		pt2[idx + 1].u = 0;
    27f2:	8b 45 ac             	mov    eax,DWORD PTR [ebp-0x54]
    27f5:	83 c0 01             	add    eax,0x1
    27f8:	8d 14 c5 00 00 00 00 	lea    edx,[eax*8+0x0]
    27ff:	8b 45 bc             	mov    eax,DWORD PTR [ebp-0x44]
    2802:	01 d0                	add    eax,edx
    2804:	0f b6 10             	movzx  edx,BYTE PTR [eax]
    2807:	83 e2 fb             	and    edx,0xfffffffb
    280a:	88 10                	mov    BYTE PTR [eax],dl
		pt2[idx + 1].addr = (uint64_t)m2 / 4096 + 1;
    280c:	8b 45 d4             	mov    eax,DWORD PTR [ebp-0x2c]
    280f:	99                   	cdq
    2810:	0f ac d0 0c          	shrd   eax,edx,0xc
    2814:	c1 ea 0c             	shr    edx,0xc
    2817:	83 c0 01             	add    eax,0x1
    281a:	83 d2 00             	adc    edx,0x0
    281d:	8b 4d ac             	mov    ecx,DWORD PTR [ebp-0x54]
    2820:	83 c1 01             	add    ecx,0x1
    2823:	8d 1c cd 00 00 00 00 	lea    ebx,[ecx*8+0x0]
    282a:	8b 4d bc             	mov    ecx,DWORD PTR [ebp-0x44]
    282d:	01 d9                	add    ecx,ebx
    282f:	81 e2 ff 00 00 00    	and    edx,0xff
    2835:	89 c3                	mov    ebx,eax
    2837:	81 e3 ff ff 0f 00    	and    ebx,0xfffff
    283d:	89 de                	mov    esi,ebx
    283f:	c1 e6 0c             	shl    esi,0xc
    2842:	8b 19                	mov    ebx,DWORD PTR [ecx]
    2844:	81 e3 ff 0f 00 00    	and    ebx,0xfff
    284a:	09 f3                	or     ebx,esi
    284c:	89 19                	mov    DWORD PTR [ecx],ebx
    284e:	89 c3                	mov    ebx,eax
    2850:	c1 eb 14             	shr    ebx,0x14
    2853:	89 de                	mov    esi,ebx
    2855:	66 81 e6 ff 0f       	and    si,0xfff
    285a:	0f b7 59 04          	movzx  ebx,WORD PTR [ecx+0x4]
    285e:	66 81 e3 00 f0       	and    bx,0xf000
    2863:	09 f3                	or     ebx,esi
    2865:	66 89 59 04          	mov    WORD PTR [ecx+0x4],bx
    2869:	0f b6 c2             	movzx  eax,dl
    286c:	c1 e0 0c             	shl    eax,0xc
    286f:	89 c2                	mov    edx,eax
    2871:	8b 41 04             	mov    eax,DWORD PTR [ecx+0x4]
    2874:	25 ff 0f f0 ff       	and    eax,0xfff00fff
    2879:	09 d0                	or     eax,edx
    287b:	89 41 04             	mov    DWORD PTR [ecx+0x4],eax
		pt2[idx + 1].xd = (has_nx ? 1 : 0);
    287e:	8b 15 00 00 00 00    	mov    edx,DWORD PTR ds:0x0
    2884:	8b 45 ac             	mov    eax,DWORD PTR [ebp-0x54]
    2887:	83 c0 01             	add    eax,0x1
    288a:	8d 0c c5 00 00 00 00 	lea    ecx,[eax*8+0x0]
    2891:	8b 45 bc             	mov    eax,DWORD PTR [ebp-0x44]
    2894:	01 c8                	add    eax,ecx
    2896:	85 d2                	test   edx,edx
    2898:	0f 95 c2             	setne  dl
    289b:	89 d1                	mov    ecx,edx
    289d:	c1 e1 07             	shl    ecx,0x7
    28a0:	0f b6 50 07          	movzx  edx,BYTE PTR [eax+0x7]
    28a4:	83 e2 7f             	and    edx,0x7f
    28a7:	09 ca                	or     edx,ecx
    28a9:	88 50 07             	mov    BYTE PTR [eax+0x7],dl
		/* followed by the two PDs */
		idx = (m1->pds[0] - bse) / 4096;
    28ac:	8b 45 d8             	mov    eax,DWORD PTR [ebp-0x28]
    28af:	8b 50 04             	mov    edx,DWORD PTR [eax+0x4]
    28b2:	8b 00                	mov    eax,DWORD PTR [eax]
    28b4:	2b 45 b0             	sub    eax,DWORD PTR [ebp-0x50]
    28b7:	1b 55 b4             	sbb    edx,DWORD PTR [ebp-0x4c]
    28ba:	0f ac d0 0c          	shrd   eax,edx,0xc
    28be:	c1 ea 0c             	shr    edx,0xc
    28c1:	89 45 ac             	mov    DWORD PTR [ebp-0x54],eax
		pt2[idx].p = 1;
    28c4:	8b 45 ac             	mov    eax,DWORD PTR [ebp-0x54]
    28c7:	8d 14 c5 00 00 00 00 	lea    edx,[eax*8+0x0]
    28ce:	8b 45 bc             	mov    eax,DWORD PTR [ebp-0x44]
    28d1:	01 d0                	add    eax,edx
    28d3:	0f b6 10             	movzx  edx,BYTE PTR [eax]
    28d6:	83 ca 01             	or     edx,0x1
    28d9:	88 10                	mov    BYTE PTR [eax],dl
		pt2[idx].w = 1;
    28db:	8b 45 ac             	mov    eax,DWORD PTR [ebp-0x54]
    28de:	8d 14 c5 00 00 00 00 	lea    edx,[eax*8+0x0]
    28e5:	8b 45 bc             	mov    eax,DWORD PTR [ebp-0x44]
    28e8:	01 d0                	add    eax,edx
    28ea:	0f b6 10             	movzx  edx,BYTE PTR [eax]
    28ed:	83 ca 02             	or     edx,0x2
    28f0:	88 10                	mov    BYTE PTR [eax],dl
		pt2[idx].u = 0;
    28f2:	8b 45 ac             	mov    eax,DWORD PTR [ebp-0x54]
    28f5:	8d 14 c5 00 00 00 00 	lea    edx,[eax*8+0x0]
    28fc:	8b 45 bc             	mov    eax,DWORD PTR [ebp-0x44]
    28ff:	01 d0                	add    eax,edx
    2901:	0f b6 10             	movzx  edx,BYTE PTR [eax]
    2904:	83 e2 fb             	and    edx,0xfffffffb
    2907:	88 10                	mov    BYTE PTR [eax],dl
		pt2[idx].addr = (uint64_t)pl1 / 4096;
    2909:	8b 45 d0             	mov    eax,DWORD PTR [ebp-0x30]
    290c:	99                   	cdq
    290d:	0f ac d0 0c          	shrd   eax,edx,0xc
    2911:	c1 ea 0c             	shr    edx,0xc
    2914:	8b 4d ac             	mov    ecx,DWORD PTR [ebp-0x54]
    2917:	8d 1c cd 00 00 00 00 	lea    ebx,[ecx*8+0x0]
    291e:	8b 4d bc             	mov    ecx,DWORD PTR [ebp-0x44]
    2921:	01 d9                	add    ecx,ebx
    2923:	81 e2 ff 00 00 00    	and    edx,0xff
    2929:	89 c3                	mov    ebx,eax
    292b:	81 e3 ff ff 0f 00    	and    ebx,0xfffff
    2931:	89 de                	mov    esi,ebx
    2933:	c1 e6 0c             	shl    esi,0xc
    2936:	8b 19                	mov    ebx,DWORD PTR [ecx]
    2938:	81 e3 ff 0f 00 00    	and    ebx,0xfff
    293e:	09 f3                	or     ebx,esi
    2940:	89 19                	mov    DWORD PTR [ecx],ebx
    2942:	89 c3                	mov    ebx,eax
    2944:	c1 eb 14             	shr    ebx,0x14
    2947:	89 de                	mov    esi,ebx
    2949:	66 81 e6 ff 0f       	and    si,0xfff
    294e:	0f b7 59 04          	movzx  ebx,WORD PTR [ecx+0x4]
    2952:	66 81 e3 00 f0       	and    bx,0xf000
    2957:	09 f3                	or     ebx,esi
    2959:	66 89 59 04          	mov    WORD PTR [ecx+0x4],bx
    295d:	0f b6 c2             	movzx  eax,dl
    2960:	c1 e0 0c             	shl    eax,0xc
    2963:	89 c2                	mov    edx,eax
    2965:	8b 41 04             	mov    eax,DWORD PTR [ecx+0x4]
    2968:	25 ff 0f f0 ff       	and    eax,0xfff00fff
    296d:	09 d0                	or     eax,edx
    296f:	89 41 04             	mov    DWORD PTR [ecx+0x4],eax
		pt2[idx].xd = (has_nx ? 1 : 0);
    2972:	8b 15 00 00 00 00    	mov    edx,DWORD PTR ds:0x0
    2978:	8b 45 ac             	mov    eax,DWORD PTR [ebp-0x54]
    297b:	8d 0c c5 00 00 00 00 	lea    ecx,[eax*8+0x0]
    2982:	8b 45 bc             	mov    eax,DWORD PTR [ebp-0x44]
    2985:	01 c8                	add    eax,ecx
    2987:	85 d2                	test   edx,edx
    2989:	0f 95 c2             	setne  dl
    298c:	89 d1                	mov    ecx,edx
    298e:	c1 e1 07             	shl    ecx,0x7
    2991:	0f b6 50 07          	movzx  edx,BYTE PTR [eax+0x7]
    2995:	83 e2 7f             	and    edx,0x7f
    2998:	09 ca                	or     edx,ecx
    299a:	88 50 07             	mov    BYTE PTR [eax+0x7],dl
		idx = (m2->pds[511] - bse) / 4096;
    299d:	8b 45 d4             	mov    eax,DWORD PTR [ebp-0x2c]
    29a0:	8b 90 fc 0f 00 00    	mov    edx,DWORD PTR [eax+0xffc]
    29a6:	8b 80 f8 0f 00 00    	mov    eax,DWORD PTR [eax+0xff8]
    29ac:	2b 45 b0             	sub    eax,DWORD PTR [ebp-0x50]
    29af:	1b 55 b4             	sbb    edx,DWORD PTR [ebp-0x4c]
    29b2:	0f ac d0 0c          	shrd   eax,edx,0xc
    29b6:	c1 ea 0c             	shr    edx,0xc
    29b9:	89 45 ac             	mov    DWORD PTR [ebp-0x54],eax
		pt2[idx].p = 1;
    29bc:	8b 45 ac             	mov    eax,DWORD PTR [ebp-0x54]
    29bf:	8d 14 c5 00 00 00 00 	lea    edx,[eax*8+0x0]
    29c6:	8b 45 bc             	mov    eax,DWORD PTR [ebp-0x44]
    29c9:	01 d0                	add    eax,edx
    29cb:	0f b6 10             	movzx  edx,BYTE PTR [eax]
    29ce:	83 ca 01             	or     edx,0x1
    29d1:	88 10                	mov    BYTE PTR [eax],dl
		pt2[idx].w = 1;
    29d3:	8b 45 ac             	mov    eax,DWORD PTR [ebp-0x54]
    29d6:	8d 14 c5 00 00 00 00 	lea    edx,[eax*8+0x0]
    29dd:	8b 45 bc             	mov    eax,DWORD PTR [ebp-0x44]
    29e0:	01 d0                	add    eax,edx
    29e2:	0f b6 10             	movzx  edx,BYTE PTR [eax]
    29e5:	83 ca 02             	or     edx,0x2
    29e8:	88 10                	mov    BYTE PTR [eax],dl
		pt2[idx].u = 0;
    29ea:	8b 45 ac             	mov    eax,DWORD PTR [ebp-0x54]
    29ed:	8d 14 c5 00 00 00 00 	lea    edx,[eax*8+0x0]
    29f4:	8b 45 bc             	mov    eax,DWORD PTR [ebp-0x44]
    29f7:	01 d0                	add    eax,edx
    29f9:	0f b6 10             	movzx  edx,BYTE PTR [eax]
    29fc:	83 e2 fb             	and    edx,0xfffffffb
    29ff:	88 10                	mov    BYTE PTR [eax],dl
		pt2[idx].addr = (uint64_t)pl2 / 4096;
    2a01:	8b 45 cc             	mov    eax,DWORD PTR [ebp-0x34]
    2a04:	99                   	cdq
    2a05:	0f ac d0 0c          	shrd   eax,edx,0xc
    2a09:	c1 ea 0c             	shr    edx,0xc
    2a0c:	8b 4d ac             	mov    ecx,DWORD PTR [ebp-0x54]
    2a0f:	8d 1c cd 00 00 00 00 	lea    ebx,[ecx*8+0x0]
    2a16:	8b 4d bc             	mov    ecx,DWORD PTR [ebp-0x44]
    2a19:	01 d9                	add    ecx,ebx
    2a1b:	81 e2 ff 00 00 00    	and    edx,0xff
    2a21:	89 c3                	mov    ebx,eax
    2a23:	81 e3 ff ff 0f 00    	and    ebx,0xfffff
    2a29:	89 de                	mov    esi,ebx
    2a2b:	c1 e6 0c             	shl    esi,0xc
    2a2e:	8b 19                	mov    ebx,DWORD PTR [ecx]
    2a30:	81 e3 ff 0f 00 00    	and    ebx,0xfff
    2a36:	09 f3                	or     ebx,esi
    2a38:	89 19                	mov    DWORD PTR [ecx],ebx
    2a3a:	89 c3                	mov    ebx,eax
    2a3c:	c1 eb 14             	shr    ebx,0x14
    2a3f:	89 de                	mov    esi,ebx
    2a41:	66 81 e6 ff 0f       	and    si,0xfff
    2a46:	0f b7 59 04          	movzx  ebx,WORD PTR [ecx+0x4]
    2a4a:	66 81 e3 00 f0       	and    bx,0xf000
    2a4f:	09 f3                	or     ebx,esi
    2a51:	66 89 59 04          	mov    WORD PTR [ecx+0x4],bx
    2a55:	0f b6 c2             	movzx  eax,dl
    2a58:	c1 e0 0c             	shl    eax,0xc
    2a5b:	89 c2                	mov    edx,eax
    2a5d:	8b 41 04             	mov    eax,DWORD PTR [ecx+0x4]
    2a60:	25 ff 0f f0 ff       	and    eax,0xfff00fff
    2a65:	09 d0                	or     eax,edx
    2a67:	89 41 04             	mov    DWORD PTR [ecx+0x4],eax
		pt2[idx].xd = (has_nx ? 1 : 0);
    2a6a:	8b 15 00 00 00 00    	mov    edx,DWORD PTR ds:0x0
    2a70:	8b 45 ac             	mov    eax,DWORD PTR [ebp-0x54]
    2a73:	8d 0c c5 00 00 00 00 	lea    ecx,[eax*8+0x0]
    2a7a:	8b 45 bc             	mov    eax,DWORD PTR [ebp-0x44]
    2a7d:	01 c8                	add    eax,ecx
    2a7f:	85 d2                	test   edx,edx
    2a81:	0f 95 c2             	setne  dl
    2a84:	89 d1                	mov    ecx,edx
    2a86:	c1 e1 07             	shl    ecx,0x7
    2a89:	0f b6 50 07          	movzx  edx,BYTE PTR [eax+0x7]
    2a8d:	83 e2 7f             	and    edx,0x7f
    2a90:	09 ca                	or     edx,ecx
    2a92:	88 50 07             	mov    BYTE PTR [eax+0x7],dl
		/* and the two PT pointer containers */
		idx = (m1->pdes[0] - bse) / 4096;
    2a95:	8b 45 d8             	mov    eax,DWORD PTR [ebp-0x28]
    2a98:	8b 90 04 10 00 00    	mov    edx,DWORD PTR [eax+0x1004]
    2a9e:	8b 80 00 10 00 00    	mov    eax,DWORD PTR [eax+0x1000]
    2aa4:	2b 45 b0             	sub    eax,DWORD PTR [ebp-0x50]
    2aa7:	1b 55 b4             	sbb    edx,DWORD PTR [ebp-0x4c]
    2aaa:	0f ac d0 0c          	shrd   eax,edx,0xc
    2aae:	c1 ea 0c             	shr    edx,0xc
    2ab1:	89 45 ac             	mov    DWORD PTR [ebp-0x54],eax
		pt2[idx].p = 1;
    2ab4:	8b 45 ac             	mov    eax,DWORD PTR [ebp-0x54]
    2ab7:	8d 14 c5 00 00 00 00 	lea    edx,[eax*8+0x0]
    2abe:	8b 45 bc             	mov    eax,DWORD PTR [ebp-0x44]
    2ac1:	01 d0                	add    eax,edx
    2ac3:	0f b6 10             	movzx  edx,BYTE PTR [eax]
    2ac6:	83 ca 01             	or     edx,0x1
    2ac9:	88 10                	mov    BYTE PTR [eax],dl
		pt2[idx].w = 1;
    2acb:	8b 45 ac             	mov    eax,DWORD PTR [ebp-0x54]
    2ace:	8d 14 c5 00 00 00 00 	lea    edx,[eax*8+0x0]
    2ad5:	8b 45 bc             	mov    eax,DWORD PTR [ebp-0x44]
    2ad8:	01 d0                	add    eax,edx
    2ada:	0f b6 10             	movzx  edx,BYTE PTR [eax]
    2add:	83 ca 02             	or     edx,0x2
    2ae0:	88 10                	mov    BYTE PTR [eax],dl
		pt2[idx].u = 0;
    2ae2:	8b 45 ac             	mov    eax,DWORD PTR [ebp-0x54]
    2ae5:	8d 14 c5 00 00 00 00 	lea    edx,[eax*8+0x0]
    2aec:	8b 45 bc             	mov    eax,DWORD PTR [ebp-0x44]
    2aef:	01 d0                	add    eax,edx
    2af1:	0f b6 10             	movzx  edx,BYTE PTR [eax]
    2af4:	83 e2 fb             	and    edx,0xfffffffb
    2af7:	88 10                	mov    BYTE PTR [eax],dl
		pt2[idx].addr = (uint64_t)n1 / 4096;
    2af9:	8b 45 c8             	mov    eax,DWORD PTR [ebp-0x38]
    2afc:	99                   	cdq
    2afd:	0f ac d0 0c          	shrd   eax,edx,0xc
    2b01:	c1 ea 0c             	shr    edx,0xc
    2b04:	8b 4d ac             	mov    ecx,DWORD PTR [ebp-0x54]
    2b07:	8d 1c cd 00 00 00 00 	lea    ebx,[ecx*8+0x0]
    2b0e:	8b 4d bc             	mov    ecx,DWORD PTR [ebp-0x44]
    2b11:	01 d9                	add    ecx,ebx
    2b13:	81 e2 ff 00 00 00    	and    edx,0xff
    2b19:	89 c3                	mov    ebx,eax
    2b1b:	81 e3 ff ff 0f 00    	and    ebx,0xfffff
    2b21:	89 de                	mov    esi,ebx
    2b23:	c1 e6 0c             	shl    esi,0xc
    2b26:	8b 19                	mov    ebx,DWORD PTR [ecx]
    2b28:	81 e3 ff 0f 00 00    	and    ebx,0xfff
    2b2e:	09 f3                	or     ebx,esi
    2b30:	89 19                	mov    DWORD PTR [ecx],ebx
    2b32:	89 c3                	mov    ebx,eax
    2b34:	c1 eb 14             	shr    ebx,0x14
    2b37:	89 de                	mov    esi,ebx
    2b39:	66 81 e6 ff 0f       	and    si,0xfff
    2b3e:	0f b7 59 04          	movzx  ebx,WORD PTR [ecx+0x4]
    2b42:	66 81 e3 00 f0       	and    bx,0xf000
    2b47:	09 f3                	or     ebx,esi
    2b49:	66 89 59 04          	mov    WORD PTR [ecx+0x4],bx
    2b4d:	0f b6 c2             	movzx  eax,dl
    2b50:	c1 e0 0c             	shl    eax,0xc
    2b53:	89 c2                	mov    edx,eax
    2b55:	8b 41 04             	mov    eax,DWORD PTR [ecx+0x4]
    2b58:	25 ff 0f f0 ff       	and    eax,0xfff00fff
    2b5d:	09 d0                	or     eax,edx
    2b5f:	89 41 04             	mov    DWORD PTR [ecx+0x4],eax
		pt2[idx].xd = (has_nx ? 1 : 0);
    2b62:	8b 15 00 00 00 00    	mov    edx,DWORD PTR ds:0x0
    2b68:	8b 45 ac             	mov    eax,DWORD PTR [ebp-0x54]
    2b6b:	8d 0c c5 00 00 00 00 	lea    ecx,[eax*8+0x0]
    2b72:	8b 45 bc             	mov    eax,DWORD PTR [ebp-0x44]
    2b75:	01 c8                	add    eax,ecx
    2b77:	85 d2                	test   edx,edx
    2b79:	0f 95 c2             	setne  dl
    2b7c:	89 d1                	mov    ecx,edx
    2b7e:	c1 e1 07             	shl    ecx,0x7
    2b81:	0f b6 50 07          	movzx  edx,BYTE PTR [eax+0x7]
    2b85:	83 e2 7f             	and    edx,0x7f
    2b88:	09 ca                	or     edx,ecx
    2b8a:	88 50 07             	mov    BYTE PTR [eax+0x7],dl
		idx = (m2->pdes[511] - bse) / 4096;
    2b8d:	8b 45 d4             	mov    eax,DWORD PTR [ebp-0x2c]
    2b90:	8b 90 fc 1f 00 00    	mov    edx,DWORD PTR [eax+0x1ffc]
    2b96:	8b 80 f8 1f 00 00    	mov    eax,DWORD PTR [eax+0x1ff8]
    2b9c:	2b 45 b0             	sub    eax,DWORD PTR [ebp-0x50]
    2b9f:	1b 55 b4             	sbb    edx,DWORD PTR [ebp-0x4c]
    2ba2:	0f ac d0 0c          	shrd   eax,edx,0xc
    2ba6:	c1 ea 0c             	shr    edx,0xc
    2ba9:	89 45 ac             	mov    DWORD PTR [ebp-0x54],eax
		pt2[idx].p = 1;
    2bac:	8b 45 ac             	mov    eax,DWORD PTR [ebp-0x54]
    2baf:	8d 14 c5 00 00 00 00 	lea    edx,[eax*8+0x0]
    2bb6:	8b 45 bc             	mov    eax,DWORD PTR [ebp-0x44]
    2bb9:	01 d0                	add    eax,edx
    2bbb:	0f b6 10             	movzx  edx,BYTE PTR [eax]
    2bbe:	83 ca 01             	or     edx,0x1
    2bc1:	88 10                	mov    BYTE PTR [eax],dl
		pt2[idx].w = 1;
    2bc3:	8b 45 ac             	mov    eax,DWORD PTR [ebp-0x54]
    2bc6:	8d 14 c5 00 00 00 00 	lea    edx,[eax*8+0x0]
    2bcd:	8b 45 bc             	mov    eax,DWORD PTR [ebp-0x44]
    2bd0:	01 d0                	add    eax,edx
    2bd2:	0f b6 10             	movzx  edx,BYTE PTR [eax]
    2bd5:	83 ca 02             	or     edx,0x2
    2bd8:	88 10                	mov    BYTE PTR [eax],dl
		pt2[idx].u = 0;
    2bda:	8b 45 ac             	mov    eax,DWORD PTR [ebp-0x54]
    2bdd:	8d 14 c5 00 00 00 00 	lea    edx,[eax*8+0x0]
    2be4:	8b 45 bc             	mov    eax,DWORD PTR [ebp-0x44]
    2be7:	01 d0                	add    eax,edx
    2be9:	0f b6 10             	movzx  edx,BYTE PTR [eax]
    2bec:	83 e2 fb             	and    edx,0xfffffffb
    2bef:	88 10                	mov    BYTE PTR [eax],dl
		pt2[idx].addr = (uint64_t)n2 / 4096;
    2bf1:	8b 45 c4             	mov    eax,DWORD PTR [ebp-0x3c]
    2bf4:	99                   	cdq
    2bf5:	0f ac d0 0c          	shrd   eax,edx,0xc
    2bf9:	c1 ea 0c             	shr    edx,0xc
    2bfc:	8b 4d ac             	mov    ecx,DWORD PTR [ebp-0x54]
    2bff:	8d 1c cd 00 00 00 00 	lea    ebx,[ecx*8+0x0]
    2c06:	8b 4d bc             	mov    ecx,DWORD PTR [ebp-0x44]
    2c09:	01 d9                	add    ecx,ebx
    2c0b:	81 e2 ff 00 00 00    	and    edx,0xff
    2c11:	89 c3                	mov    ebx,eax
    2c13:	81 e3 ff ff 0f 00    	and    ebx,0xfffff
    2c19:	89 de                	mov    esi,ebx
    2c1b:	c1 e6 0c             	shl    esi,0xc
    2c1e:	8b 19                	mov    ebx,DWORD PTR [ecx]
    2c20:	81 e3 ff 0f 00 00    	and    ebx,0xfff
    2c26:	09 f3                	or     ebx,esi
    2c28:	89 19                	mov    DWORD PTR [ecx],ebx
    2c2a:	89 c3                	mov    ebx,eax
    2c2c:	c1 eb 14             	shr    ebx,0x14
    2c2f:	89 de                	mov    esi,ebx
    2c31:	66 81 e6 ff 0f       	and    si,0xfff
    2c36:	0f b7 59 04          	movzx  ebx,WORD PTR [ecx+0x4]
    2c3a:	66 81 e3 00 f0       	and    bx,0xf000
    2c3f:	09 f3                	or     ebx,esi
    2c41:	66 89 59 04          	mov    WORD PTR [ecx+0x4],bx
    2c45:	0f b6 c2             	movzx  eax,dl
    2c48:	c1 e0 0c             	shl    eax,0xc
    2c4b:	89 c2                	mov    edx,eax
    2c4d:	8b 41 04             	mov    eax,DWORD PTR [ecx+0x4]
    2c50:	25 ff 0f f0 ff       	and    eax,0xfff00fff
    2c55:	09 d0                	or     eax,edx
    2c57:	89 41 04             	mov    DWORD PTR [ecx+0x4],eax
		pt2[idx].xd = (has_nx ? 1 : 0);
    2c5a:	8b 15 00 00 00 00    	mov    edx,DWORD PTR ds:0x0
    2c60:	8b 45 ac             	mov    eax,DWORD PTR [ebp-0x54]
    2c63:	8d 0c c5 00 00 00 00 	lea    ecx,[eax*8+0x0]
    2c6a:	8b 45 bc             	mov    eax,DWORD PTR [ebp-0x44]
    2c6d:	01 c8                	add    eax,ecx
    2c6f:	85 d2                	test   edx,edx
    2c71:	0f 95 c2             	setne  dl
    2c74:	89 d1                	mov    ecx,edx
    2c76:	c1 e1 07             	shl    ecx,0x7
    2c79:	0f b6 50 07          	movzx  edx,BYTE PTR [eax+0x7]
    2c7d:	83 e2 7f             	and    edx,0x7f
    2c80:	09 ca                	or     edx,ecx
    2c82:	88 50 07             	mov    BYTE PTR [eax+0x7],dl
		/* and finally the PTs */
		idx = (n1->pts[0] - bse) / 4096;
    2c85:	8b 45 c8             	mov    eax,DWORD PTR [ebp-0x38]
    2c88:	8b 50 04             	mov    edx,DWORD PTR [eax+0x4]
    2c8b:	8b 00                	mov    eax,DWORD PTR [eax]
    2c8d:	2b 45 b0             	sub    eax,DWORD PTR [ebp-0x50]
    2c90:	1b 55 b4             	sbb    edx,DWORD PTR [ebp-0x4c]
    2c93:	0f ac d0 0c          	shrd   eax,edx,0xc
    2c97:	c1 ea 0c             	shr    edx,0xc
    2c9a:	89 45 ac             	mov    DWORD PTR [ebp-0x54],eax
		pt2[idx].p = 1;
    2c9d:	8b 45 ac             	mov    eax,DWORD PTR [ebp-0x54]
    2ca0:	8d 14 c5 00 00 00 00 	lea    edx,[eax*8+0x0]
    2ca7:	8b 45 bc             	mov    eax,DWORD PTR [ebp-0x44]
    2caa:	01 d0                	add    eax,edx
    2cac:	0f b6 10             	movzx  edx,BYTE PTR [eax]
    2caf:	83 ca 01             	or     edx,0x1
    2cb2:	88 10                	mov    BYTE PTR [eax],dl
		pt2[idx].w = 1;
    2cb4:	8b 45 ac             	mov    eax,DWORD PTR [ebp-0x54]
    2cb7:	8d 14 c5 00 00 00 00 	lea    edx,[eax*8+0x0]
    2cbe:	8b 45 bc             	mov    eax,DWORD PTR [ebp-0x44]
    2cc1:	01 d0                	add    eax,edx
    2cc3:	0f b6 10             	movzx  edx,BYTE PTR [eax]
    2cc6:	83 ca 02             	or     edx,0x2
    2cc9:	88 10                	mov    BYTE PTR [eax],dl
		pt2[idx].u = 0;
    2ccb:	8b 45 ac             	mov    eax,DWORD PTR [ebp-0x54]
    2cce:	8d 14 c5 00 00 00 00 	lea    edx,[eax*8+0x0]
    2cd5:	8b 45 bc             	mov    eax,DWORD PTR [ebp-0x44]
    2cd8:	01 d0                	add    eax,edx
    2cda:	0f b6 10             	movzx  edx,BYTE PTR [eax]
    2cdd:	83 e2 fb             	and    edx,0xfffffffb
    2ce0:	88 10                	mov    BYTE PTR [eax],dl
		pt2[idx].addr = (uint64_t)pt1 / 4096;
    2ce2:	8b 45 c0             	mov    eax,DWORD PTR [ebp-0x40]
    2ce5:	99                   	cdq
    2ce6:	0f ac d0 0c          	shrd   eax,edx,0xc
    2cea:	c1 ea 0c             	shr    edx,0xc
    2ced:	8b 4d ac             	mov    ecx,DWORD PTR [ebp-0x54]
    2cf0:	8d 1c cd 00 00 00 00 	lea    ebx,[ecx*8+0x0]
    2cf7:	8b 4d bc             	mov    ecx,DWORD PTR [ebp-0x44]
    2cfa:	01 d9                	add    ecx,ebx
    2cfc:	81 e2 ff 00 00 00    	and    edx,0xff
    2d02:	89 c3                	mov    ebx,eax
    2d04:	81 e3 ff ff 0f 00    	and    ebx,0xfffff
    2d0a:	89 de                	mov    esi,ebx
    2d0c:	c1 e6 0c             	shl    esi,0xc
    2d0f:	8b 19                	mov    ebx,DWORD PTR [ecx]
    2d11:	81 e3 ff 0f 00 00    	and    ebx,0xfff
    2d17:	09 f3                	or     ebx,esi
    2d19:	89 19                	mov    DWORD PTR [ecx],ebx
    2d1b:	89 c3                	mov    ebx,eax
    2d1d:	c1 eb 14             	shr    ebx,0x14
    2d20:	89 de                	mov    esi,ebx
    2d22:	66 81 e6 ff 0f       	and    si,0xfff
    2d27:	0f b7 59 04          	movzx  ebx,WORD PTR [ecx+0x4]
    2d2b:	66 81 e3 00 f0       	and    bx,0xf000
    2d30:	09 f3                	or     ebx,esi
    2d32:	66 89 59 04          	mov    WORD PTR [ecx+0x4],bx
    2d36:	0f b6 c2             	movzx  eax,dl
    2d39:	c1 e0 0c             	shl    eax,0xc
    2d3c:	89 c2                	mov    edx,eax
    2d3e:	8b 41 04             	mov    eax,DWORD PTR [ecx+0x4]
    2d41:	25 ff 0f f0 ff       	and    eax,0xfff00fff
    2d46:	09 d0                	or     eax,edx
    2d48:	89 41 04             	mov    DWORD PTR [ecx+0x4],eax
		pt2[idx].xd = (has_nx ? 1 : 0);
    2d4b:	8b 15 00 00 00 00    	mov    edx,DWORD PTR ds:0x0
    2d51:	8b 45 ac             	mov    eax,DWORD PTR [ebp-0x54]
    2d54:	8d 0c c5 00 00 00 00 	lea    ecx,[eax*8+0x0]
    2d5b:	8b 45 bc             	mov    eax,DWORD PTR [ebp-0x44]
    2d5e:	01 c8                	add    eax,ecx
    2d60:	85 d2                	test   edx,edx
    2d62:	0f 95 c2             	setne  dl
    2d65:	89 d1                	mov    ecx,edx
    2d67:	c1 e1 07             	shl    ecx,0x7
    2d6a:	0f b6 50 07          	movzx  edx,BYTE PTR [eax+0x7]
    2d6e:	83 e2 7f             	and    edx,0x7f
    2d71:	09 ca                	or     edx,ecx
    2d73:	88 50 07             	mov    BYTE PTR [eax+0x7],dl
		idx = (n2->pts[511] - bse) / 4096;
    2d76:	8b 45 c4             	mov    eax,DWORD PTR [ebp-0x3c]
    2d79:	8b 90 fc 0f 00 00    	mov    edx,DWORD PTR [eax+0xffc]
    2d7f:	8b 80 f8 0f 00 00    	mov    eax,DWORD PTR [eax+0xff8]
    2d85:	2b 45 b0             	sub    eax,DWORD PTR [ebp-0x50]
    2d88:	1b 55 b4             	sbb    edx,DWORD PTR [ebp-0x4c]
    2d8b:	0f ac d0 0c          	shrd   eax,edx,0xc
    2d8f:	c1 ea 0c             	shr    edx,0xc
    2d92:	89 45 ac             	mov    DWORD PTR [ebp-0x54],eax
		pt2[idx].p = 1;
    2d95:	8b 45 ac             	mov    eax,DWORD PTR [ebp-0x54]
    2d98:	8d 14 c5 00 00 00 00 	lea    edx,[eax*8+0x0]
    2d9f:	8b 45 bc             	mov    eax,DWORD PTR [ebp-0x44]
    2da2:	01 d0                	add    eax,edx
    2da4:	0f b6 10             	movzx  edx,BYTE PTR [eax]
    2da7:	83 ca 01             	or     edx,0x1
    2daa:	88 10                	mov    BYTE PTR [eax],dl
		pt2[idx].w = 1;
    2dac:	8b 45 ac             	mov    eax,DWORD PTR [ebp-0x54]
    2daf:	8d 14 c5 00 00 00 00 	lea    edx,[eax*8+0x0]
    2db6:	8b 45 bc             	mov    eax,DWORD PTR [ebp-0x44]
    2db9:	01 d0                	add    eax,edx
    2dbb:	0f b6 10             	movzx  edx,BYTE PTR [eax]
    2dbe:	83 ca 02             	or     edx,0x2
    2dc1:	88 10                	mov    BYTE PTR [eax],dl
		pt2[idx].u = 0;
    2dc3:	8b 45 ac             	mov    eax,DWORD PTR [ebp-0x54]
    2dc6:	8d 14 c5 00 00 00 00 	lea    edx,[eax*8+0x0]
    2dcd:	8b 45 bc             	mov    eax,DWORD PTR [ebp-0x44]
    2dd0:	01 d0                	add    eax,edx
    2dd2:	0f b6 10             	movzx  edx,BYTE PTR [eax]
    2dd5:	83 e2 fb             	and    edx,0xfffffffb
    2dd8:	88 10                	mov    BYTE PTR [eax],dl
		pt2[idx].addr = (uint64_t)pt2 / 4096;
    2dda:	8b 45 bc             	mov    eax,DWORD PTR [ebp-0x44]
    2ddd:	99                   	cdq
    2dde:	0f ac d0 0c          	shrd   eax,edx,0xc
    2de2:	c1 ea 0c             	shr    edx,0xc
    2de5:	8b 4d ac             	mov    ecx,DWORD PTR [ebp-0x54]
    2de8:	8d 1c cd 00 00 00 00 	lea    ebx,[ecx*8+0x0]
    2def:	8b 4d bc             	mov    ecx,DWORD PTR [ebp-0x44]
    2df2:	01 d9                	add    ecx,ebx
    2df4:	81 e2 ff 00 00 00    	and    edx,0xff
    2dfa:	89 c3                	mov    ebx,eax
    2dfc:	81 e3 ff ff 0f 00    	and    ebx,0xfffff
    2e02:	89 de                	mov    esi,ebx
    2e04:	c1 e6 0c             	shl    esi,0xc
    2e07:	8b 19                	mov    ebx,DWORD PTR [ecx]
    2e09:	81 e3 ff 0f 00 00    	and    ebx,0xfff
    2e0f:	09 f3                	or     ebx,esi
    2e11:	89 19                	mov    DWORD PTR [ecx],ebx
    2e13:	89 c3                	mov    ebx,eax
    2e15:	c1 eb 14             	shr    ebx,0x14
    2e18:	89 de                	mov    esi,ebx
    2e1a:	66 81 e6 ff 0f       	and    si,0xfff
    2e1f:	0f b7 59 04          	movzx  ebx,WORD PTR [ecx+0x4]
    2e23:	66 81 e3 00 f0       	and    bx,0xf000
    2e28:	09 f3                	or     ebx,esi
    2e2a:	66 89 59 04          	mov    WORD PTR [ecx+0x4],bx
    2e2e:	0f b6 c2             	movzx  eax,dl
    2e31:	c1 e0 0c             	shl    eax,0xc
    2e34:	89 c2                	mov    edx,eax
    2e36:	8b 41 04             	mov    eax,DWORD PTR [ecx+0x4]
    2e39:	25 ff 0f f0 ff       	and    eax,0xfff00fff
    2e3e:	09 d0                	or     eax,edx
    2e40:	89 41 04             	mov    DWORD PTR [ecx+0x4],eax
		pt2[idx].xd = (has_nx ? 1 : 0);
    2e43:	8b 15 00 00 00 00    	mov    edx,DWORD PTR ds:0x0
    2e49:	8b 45 ac             	mov    eax,DWORD PTR [ebp-0x54]
    2e4c:	8d 0c c5 00 00 00 00 	lea    ecx,[eax*8+0x0]
    2e53:	8b 45 bc             	mov    eax,DWORD PTR [ebp-0x44]
    2e56:	01 c8                	add    eax,ecx
    2e58:	85 d2                	test   edx,edx
    2e5a:	0f 95 c2             	setne  dl
    2e5d:	89 d1                	mov    ecx,edx
    2e5f:	c1 e1 07             	shl    ecx,0x7
    2e62:	0f b6 50 07          	movzx  edx,BYTE PTR [eax+0x7]
    2e66:	83 e2 7f             	and    edx,0x7f
    2e69:	09 ca                	or     edx,ecx
    2e6b:	88 50 07             	mov    BYTE PTR [eax+0x7],dl

		/* and get the zero (read only) page */
		mm_alloc_pm(1, &pr, 1);
    2e6e:	83 ec 04             	sub    esp,0x4
    2e71:	6a 01                	push   0x1
    2e73:	8d 45 a0             	lea    eax,[ebp-0x60]
    2e76:	50                   	push   eax
    2e77:	6a 01                	push   0x1
    2e79:	e8 fc ff ff ff       	call   2e7a <mm_pg64_init+0x1447>
    2e7e:	83 c4 10             	add    esp,0x10
		pm_zero = pr.base;
    2e81:	8b 45 a0             	mov    eax,DWORD PTR [ebp-0x60]
    2e84:	8b 55 a4             	mov    edx,DWORD PTR [ebp-0x5c]
    2e87:	a3 00 00 00 00       	mov    ds:0x0,eax
    2e8c:	89 15 04 00 00 00    	mov    DWORD PTR ds:0x4,edx

		/* store the mapping temporarily */
		pm_mapping = (void*)pp;
    2e92:	8b 45 ec             	mov    eax,DWORD PTR [ebp-0x14]
    2e95:	a3 00 00 00 00       	mov    ds:0x0,eax
		pp->p = p;
    2e9a:	8b 45 ec             	mov    eax,DWORD PTR [ebp-0x14]
    2e9d:	8b 55 e8             	mov    edx,DWORD PTR [ebp-0x18]
    2ea0:	89 10                	mov    DWORD PTR [eax],edx
		pp->p1 = p1;
    2ea2:	8b 45 ec             	mov    eax,DWORD PTR [ebp-0x14]
    2ea5:	8b 55 e4             	mov    edx,DWORD PTR [ebp-0x1c]
    2ea8:	89 50 04             	mov    DWORD PTR [eax+0x4],edx
		pp->p2 = p2;
    2eab:	8b 45 ec             	mov    eax,DWORD PTR [ebp-0x14]
    2eae:	8b 55 e0             	mov    edx,DWORD PTR [ebp-0x20]
    2eb1:	89 50 08             	mov    DWORD PTR [eax+0x8],edx
		pp->pl1 = pl1;
    2eb4:	8b 45 ec             	mov    eax,DWORD PTR [ebp-0x14]
    2eb7:	8b 55 d0             	mov    edx,DWORD PTR [ebp-0x30]
    2eba:	89 50 0c             	mov    DWORD PTR [eax+0xc],edx
		pp->pl2 = pl2;
    2ebd:	8b 45 ec             	mov    eax,DWORD PTR [ebp-0x14]
    2ec0:	8b 55 cc             	mov    edx,DWORD PTR [ebp-0x34]
    2ec3:	89 50 10             	mov    DWORD PTR [eax+0x10],edx
		pp->pt1 = pt1;
    2ec6:	8b 45 ec             	mov    eax,DWORD PTR [ebp-0x14]
    2ec9:	8b 55 c0             	mov    edx,DWORD PTR [ebp-0x40]
    2ecc:	89 50 14             	mov    DWORD PTR [eax+0x14],edx
		pp->pt2 = pt2;
    2ecf:	8b 45 ec             	mov    eax,DWORD PTR [ebp-0x14]
    2ed2:	8b 55 bc             	mov    edx,DWORD PTR [ebp-0x44]
    2ed5:	89 50 18             	mov    DWORD PTR [eax+0x18],edx
		pp->m1 = m1;
    2ed8:	8b 45 ec             	mov    eax,DWORD PTR [ebp-0x14]
    2edb:	8b 55 d8             	mov    edx,DWORD PTR [ebp-0x28]
    2ede:	89 50 1c             	mov    DWORD PTR [eax+0x1c],edx
		pp->m2 = m2;
    2ee1:	8b 45 ec             	mov    eax,DWORD PTR [ebp-0x14]
    2ee4:	8b 55 d4             	mov    edx,DWORD PTR [ebp-0x2c]
    2ee7:	89 50 20             	mov    DWORD PTR [eax+0x20],edx
		pp->n1 = n1;
    2eea:	8b 45 ec             	mov    eax,DWORD PTR [ebp-0x14]
    2eed:	8b 55 c8             	mov    edx,DWORD PTR [ebp-0x38]
    2ef0:	89 50 24             	mov    DWORD PTR [eax+0x24],edx
		pp->n2 = n2;
    2ef3:	8b 45 ec             	mov    eax,DWORD PTR [ebp-0x14]
    2ef6:	8b 55 c4             	mov    edx,DWORD PTR [ebp-0x3c]
    2ef9:	89 50 28             	mov    DWORD PTR [eax+0x28],edx
}
    2efc:	90                   	nop
    2efd:	8d 65 f8             	lea    esp,[ebp-0x8]
    2f00:	5b                   	pop    ebx
    2f01:	5e                   	pop    esi
    2f02:	5d                   	pop    ebp
    2f03:	c3                   	ret

00002f04 <mm_pg36_init>:

void mm_pg36_init()
{
    2f04:	55                   	push   ebp
    2f05:	89 e5                	mov    ebp,esp
    2f07:	57                   	push   edi
    2f08:	56                   	push   esi
    2f09:	53                   	push   ebx
    2f0a:	83 ec 5c             	sub    esp,0x5c
		struct page_range pr;
		struct vm_pg_ptrs36* vp = vm_mapping;
    2f0d:	a1 00 00 00 00       	mov    eax,ds:0x0
    2f12:	89 45 c8             	mov    DWORD PTR [ebp-0x38],eax
		struct pm_pg36_ptrs* pp = (void*)(vp + 1);
    2f15:	8b 45 c8             	mov    eax,DWORD PTR [ebp-0x38]
    2f18:	05 4c 20 00 00       	add    eax,0x204c
    2f1d:	89 45 c4             	mov    DWORD PTR [ebp-0x3c],eax
		struct pte64 *p[4], *pt1, *pt2;

		/* clear the mappings */
		bzero(vp, sizeof(*vp));
    2f20:	68 4c 20 00 00       	push   0x204c
    2f25:	ff 75 c8             	push   DWORD PTR [ebp-0x38]
    2f28:	e8 fc ff ff ff       	call   2f29 <mm_pg36_init+0x25>
    2f2d:	83 c4 08             	add    esp,0x8
		vp->cur = 0xfffff000;
    2f30:	8b 45 c8             	mov    eax,DWORD PTR [ebp-0x38]
    2f33:	c7 40 20 00 f0 ff ff 	mov    DWORD PTR [eax+0x20],0xfffff000
		bzero(pp, sizeof(*pp));
    2f3a:	68 20 02 00 00       	push   0x220
    2f3f:	ff 75 c4             	push   DWORD PTR [ebp-0x3c]
    2f42:	e8 fc ff ff ff       	call   2f43 <mm_pg36_init+0x3f>
    2f47:	83 c4 08             	add    esp,0x8

		/* set CR3 to the base of vp */
		cr3_val = (uint64_t)vp;
    2f4a:	8b 45 c8             	mov    eax,DWORD PTR [ebp-0x38]
    2f4d:	99                   	cdq
    2f4e:	a3 00 00 00 00       	mov    ds:0x0,eax
    2f53:	89 15 04 00 00 00    	mov    DWORD PTR ds:0x4,edx

		/* get the 4 page directories */
		for (size_t i = 0; i < 4; i++) {
    2f59:	c7 45 dc 00 00 00 00 	mov    DWORD PTR [ebp-0x24],0x0
    2f60:	e9 e3 00 00 00       	jmp    3048 <mm_pg36_init+0x144>
				mm_alloc_pm(1, &pr, 1);
    2f65:	83 ec 04             	sub    esp,0x4
    2f68:	6a 01                	push   0x1
    2f6a:	8d 45 a8             	lea    eax,[ebp-0x58]
    2f6d:	50                   	push   eax
    2f6e:	6a 01                	push   0x1
    2f70:	e8 fc ff ff ff       	call   2f71 <mm_pg36_init+0x6d>
    2f75:	83 c4 10             	add    esp,0x10
				/* VM mapping */
				vp->pdp[i] = vp->cur;
    2f78:	8b 45 c8             	mov    eax,DWORD PTR [ebp-0x38]
    2f7b:	8b 50 20             	mov    edx,DWORD PTR [eax+0x20]
    2f7e:	8b 45 c8             	mov    eax,DWORD PTR [ebp-0x38]
    2f81:	8b 4d dc             	mov    ecx,DWORD PTR [ebp-0x24]
    2f84:	83 c1 08             	add    ecx,0x8
    2f87:	89 54 88 04          	mov    DWORD PTR [eax+ecx*4+0x4],edx
				vp->cur -= 4096;
    2f8b:	8b 45 c8             	mov    eax,DWORD PTR [ebp-0x38]
    2f8e:	8b 40 20             	mov    eax,DWORD PTR [eax+0x20]
    2f91:	8d 90 00 f0 ff ff    	lea    edx,[eax-0x1000]
    2f97:	8b 45 c8             	mov    eax,DWORD PTR [ebp-0x38]
    2f9a:	89 50 20             	mov    DWORD PTR [eax+0x20],edx
				/* initialize the 32bt PDPT */
				vp->pdps[i].p = 1;
    2f9d:	8b 45 c8             	mov    eax,DWORD PTR [ebp-0x38]
    2fa0:	8b 55 dc             	mov    edx,DWORD PTR [ebp-0x24]
    2fa3:	0f b6 0c d0          	movzx  ecx,BYTE PTR [eax+edx*8]
    2fa7:	83 c9 01             	or     ecx,0x1
    2faa:	88 0c d0             	mov    BYTE PTR [eax+edx*8],cl
				vp->pdps[i].w = 1;
    2fad:	8b 45 c8             	mov    eax,DWORD PTR [ebp-0x38]
    2fb0:	8b 55 dc             	mov    edx,DWORD PTR [ebp-0x24]
    2fb3:	0f b6 0c d0          	movzx  ecx,BYTE PTR [eax+edx*8]
    2fb7:	83 c9 02             	or     ecx,0x2
    2fba:	88 0c d0             	mov    BYTE PTR [eax+edx*8],cl
				vp->pdps[i].u = 1;
    2fbd:	8b 45 c8             	mov    eax,DWORD PTR [ebp-0x38]
    2fc0:	8b 55 dc             	mov    edx,DWORD PTR [ebp-0x24]
    2fc3:	0f b6 0c d0          	movzx  ecx,BYTE PTR [eax+edx*8]
    2fc7:	83 c9 04             	or     ecx,0x4
    2fca:	88 0c d0             	mov    BYTE PTR [eax+edx*8],cl
				vp->pdps[i].addr = pr.base / 4096;
    2fcd:	8b 45 a8             	mov    eax,DWORD PTR [ebp-0x58]
    2fd0:	8b 55 ac             	mov    edx,DWORD PTR [ebp-0x54]
    2fd3:	0f ac d0 0c          	shrd   eax,edx,0xc
    2fd7:	c1 ea 0c             	shr    edx,0xc
    2fda:	81 e2 ff 00 00 00    	and    edx,0xff
    2fe0:	8b 4d c8             	mov    ecx,DWORD PTR [ebp-0x38]
    2fe3:	8b 5d dc             	mov    ebx,DWORD PTR [ebp-0x24]
    2fe6:	89 c6                	mov    esi,eax
    2fe8:	81 e6 ff ff 0f 00    	and    esi,0xfffff
    2fee:	89 f7                	mov    edi,esi
    2ff0:	c1 e7 0c             	shl    edi,0xc
    2ff3:	8b 34 d9             	mov    esi,DWORD PTR [ecx+ebx*8]
    2ff6:	81 e6 ff 0f 00 00    	and    esi,0xfff
    2ffc:	09 fe                	or     esi,edi
    2ffe:	89 34 d9             	mov    DWORD PTR [ecx+ebx*8],esi
    3001:	89 c6                	mov    esi,eax
    3003:	c1 ee 14             	shr    esi,0x14
    3006:	89 f7                	mov    edi,esi
    3008:	66 81 e7 ff 0f       	and    di,0xfff
    300d:	0f b7 74 d9 04       	movzx  esi,WORD PTR [ecx+ebx*8+0x4]
    3012:	66 81 e6 00 f0       	and    si,0xf000
    3017:	09 fe                	or     esi,edi
    3019:	66 89 74 d9 04       	mov    WORD PTR [ecx+ebx*8+0x4],si
    301e:	0f b6 c2             	movzx  eax,dl
    3021:	c1 e0 0c             	shl    eax,0xc
    3024:	89 c2                	mov    edx,eax
    3026:	8b 44 d9 04          	mov    eax,DWORD PTR [ecx+ebx*8+0x4]
    302a:	25 ff 0f f0 ff       	and    eax,0xfff00fff
    302f:	09 d0                	or     eax,edx
    3031:	89 44 d9 04          	mov    DWORD PTR [ecx+ebx*8+0x4],eax
				/* and get the physical pointers */
				p[i] = (void*)pr.base;
    3035:	8b 45 a8             	mov    eax,DWORD PTR [ebp-0x58]
    3038:	8b 55 ac             	mov    edx,DWORD PTR [ebp-0x54]
    303b:	89 c2                	mov    edx,eax
    303d:	8b 45 dc             	mov    eax,DWORD PTR [ebp-0x24]
    3040:	89 54 85 98          	mov    DWORD PTR [ebp+eax*4-0x68],edx
		for (size_t i = 0; i < 4; i++) {
    3044:	83 45 dc 01          	add    DWORD PTR [ebp-0x24],0x1
    3048:	83 7d dc 03          	cmp    DWORD PTR [ebp-0x24],0x3
    304c:	0f 86 13 ff ff ff    	jbe    2f65 <mm_pg36_init+0x61>
		}


		/* create the VM mapping of the PDPTEs */
		uint32_t ct = mm_alloc_pm(2, &pr, 1); /* TODO check cont */
    3052:	83 ec 04             	sub    esp,0x4
    3055:	6a 01                	push   0x1
    3057:	8d 45 a8             	lea    eax,[ebp-0x58]
    305a:	50                   	push   eax
    305b:	6a 02                	push   0x2
    305d:	e8 fc ff ff ff       	call   305e <mm_pg36_init+0x15a>
    3062:	83 c4 10             	add    esp,0x10
    3065:	89 45 c0             	mov    DWORD PTR [ebp-0x40],eax

		/* now allocate the two page tables */
		for (size_t i = 0; i < 2048; i += 2047) { /* 0, 2047 */
    3068:	c7 45 d8 00 00 00 00 	mov    DWORD PTR [ebp-0x28],0x0
    306f:	e9 52 01 00 00       	jmp    31c6 <mm_pg36_init+0x2c2>
				struct pte64* pd = p[i / 512];
    3074:	8b 45 d8             	mov    eax,DWORD PTR [ebp-0x28]
    3077:	c1 e8 09             	shr    eax,0x9
    307a:	8b 44 85 98          	mov    eax,DWORD PTR [ebp+eax*4-0x68]
    307e:	89 45 b4             	mov    DWORD PTR [ebp-0x4c],eax
				mm_alloc_pm(1, &pr, 1);
    3081:	83 ec 04             	sub    esp,0x4
    3084:	6a 01                	push   0x1
    3086:	8d 45 a8             	lea    eax,[ebp-0x58]
    3089:	50                   	push   eax
    308a:	6a 01                	push   0x1
    308c:	e8 fc ff ff ff       	call   308d <mm_pg36_init+0x189>
    3091:	83 c4 10             	add    esp,0x10
				/* VM mapping */
				vp->pts[i] = vp->cur;
    3094:	8b 45 c8             	mov    eax,DWORD PTR [ebp-0x38]
    3097:	8b 50 20             	mov    edx,DWORD PTR [eax+0x20]
    309a:	8b 45 c8             	mov    eax,DWORD PTR [ebp-0x38]
    309d:	8b 4d d8             	mov    ecx,DWORD PTR [ebp-0x28]
    30a0:	83 c1 0c             	add    ecx,0xc
    30a3:	89 54 88 04          	mov    DWORD PTR [eax+ecx*4+0x4],edx
				vp->cur -= 4096;
    30a7:	8b 45 c8             	mov    eax,DWORD PTR [ebp-0x38]
    30aa:	8b 40 20             	mov    eax,DWORD PTR [eax+0x20]
    30ad:	8d 90 00 f0 ff ff    	lea    edx,[eax-0x1000]
    30b3:	8b 45 c8             	mov    eax,DWORD PTR [ebp-0x38]
    30b6:	89 50 20             	mov    DWORD PTR [eax+0x20],edx
				/* register in PD */
				pd[i % 512].p = 1;
    30b9:	8b 45 d8             	mov    eax,DWORD PTR [ebp-0x28]
    30bc:	25 ff 01 00 00       	and    eax,0x1ff
    30c1:	8d 14 c5 00 00 00 00 	lea    edx,[eax*8+0x0]
    30c8:	8b 45 b4             	mov    eax,DWORD PTR [ebp-0x4c]
    30cb:	01 d0                	add    eax,edx
    30cd:	0f b6 10             	movzx  edx,BYTE PTR [eax]
    30d0:	83 ca 01             	or     edx,0x1
    30d3:	88 10                	mov    BYTE PTR [eax],dl
				pd[i % 512].w = 1;
    30d5:	8b 45 d8             	mov    eax,DWORD PTR [ebp-0x28]
    30d8:	25 ff 01 00 00       	and    eax,0x1ff
    30dd:	8d 14 c5 00 00 00 00 	lea    edx,[eax*8+0x0]
    30e4:	8b 45 b4             	mov    eax,DWORD PTR [ebp-0x4c]
    30e7:	01 d0                	add    eax,edx
    30e9:	0f b6 10             	movzx  edx,BYTE PTR [eax]
    30ec:	83 ca 02             	or     edx,0x2
    30ef:	88 10                	mov    BYTE PTR [eax],dl
				pd[i % 512].u = 0;
    30f1:	8b 45 d8             	mov    eax,DWORD PTR [ebp-0x28]
    30f4:	25 ff 01 00 00       	and    eax,0x1ff
    30f9:	8d 14 c5 00 00 00 00 	lea    edx,[eax*8+0x0]
    3100:	8b 45 b4             	mov    eax,DWORD PTR [ebp-0x4c]
    3103:	01 d0                	add    eax,edx
    3105:	0f b6 10             	movzx  edx,BYTE PTR [eax]
    3108:	83 e2 fb             	and    edx,0xfffffffb
    310b:	88 10                	mov    BYTE PTR [eax],dl
				pd[i % 512].xd = 0; /* TODO: XD on PT1? */
    310d:	8b 45 d8             	mov    eax,DWORD PTR [ebp-0x28]
    3110:	25 ff 01 00 00       	and    eax,0x1ff
    3115:	8d 14 c5 00 00 00 00 	lea    edx,[eax*8+0x0]
    311c:	8b 45 b4             	mov    eax,DWORD PTR [ebp-0x4c]
    311f:	01 d0                	add    eax,edx
    3121:	0f b6 50 07          	movzx  edx,BYTE PTR [eax+0x7]
    3125:	83 e2 7f             	and    edx,0x7f
    3128:	88 50 07             	mov    BYTE PTR [eax+0x7],dl
				pd[i % 512].addr = pr.base / 4096;
    312b:	8b 45 a8             	mov    eax,DWORD PTR [ebp-0x58]
    312e:	8b 55 ac             	mov    edx,DWORD PTR [ebp-0x54]
    3131:	0f ac d0 0c          	shrd   eax,edx,0xc
    3135:	c1 ea 0c             	shr    edx,0xc
    3138:	8b 4d d8             	mov    ecx,DWORD PTR [ebp-0x28]
    313b:	81 e1 ff 01 00 00    	and    ecx,0x1ff
    3141:	8d 1c cd 00 00 00 00 	lea    ebx,[ecx*8+0x0]
    3148:	8b 4d b4             	mov    ecx,DWORD PTR [ebp-0x4c]
    314b:	01 d9                	add    ecx,ebx
    314d:	81 e2 ff 00 00 00    	and    edx,0xff
    3153:	89 c3                	mov    ebx,eax
    3155:	81 e3 ff ff 0f 00    	and    ebx,0xfffff
    315b:	89 de                	mov    esi,ebx
    315d:	c1 e6 0c             	shl    esi,0xc
    3160:	8b 19                	mov    ebx,DWORD PTR [ecx]
    3162:	81 e3 ff 0f 00 00    	and    ebx,0xfff
    3168:	09 f3                	or     ebx,esi
    316a:	89 19                	mov    DWORD PTR [ecx],ebx
    316c:	89 c3                	mov    ebx,eax
    316e:	c1 eb 14             	shr    ebx,0x14
    3171:	89 de                	mov    esi,ebx
    3173:	66 81 e6 ff 0f       	and    si,0xfff
    3178:	0f b7 59 04          	movzx  ebx,WORD PTR [ecx+0x4]
    317c:	66 81 e3 00 f0       	and    bx,0xf000
    3181:	09 f3                	or     ebx,esi
    3183:	66 89 59 04          	mov    WORD PTR [ecx+0x4],bx
    3187:	0f b6 c2             	movzx  eax,dl
    318a:	c1 e0 0c             	shl    eax,0xc
    318d:	89 c2                	mov    edx,eax
    318f:	8b 41 04             	mov    eax,DWORD PTR [ecx+0x4]
    3192:	25 ff 0f f0 ff       	and    eax,0xfff00fff
    3197:	09 d0                	or     eax,edx
    3199:	89 41 04             	mov    DWORD PTR [ecx+0x4],eax
				/* get the physical pointers */
				if (!i)
    319c:	83 7d d8 00          	cmp    DWORD PTR [ebp-0x28],0x0
    31a0:	75 0b                	jne    31ad <mm_pg36_init+0x2a9>
						pt1 = (void*)pr.base;
    31a2:	8b 45 a8             	mov    eax,DWORD PTR [ebp-0x58]
    31a5:	8b 55 ac             	mov    edx,DWORD PTR [ebp-0x54]
    31a8:	89 45 e4             	mov    DWORD PTR [ebp-0x1c],eax
    31ab:	eb 12                	jmp    31bf <mm_pg36_init+0x2bb>
				else if (i == 2047)
    31ad:	81 7d d8 ff 07 00 00 	cmp    DWORD PTR [ebp-0x28],0x7ff
    31b4:	75 09                	jne    31bf <mm_pg36_init+0x2bb>
						pt2 = (void*)pr.base;
    31b6:	8b 45 a8             	mov    eax,DWORD PTR [ebp-0x58]
    31b9:	8b 55 ac             	mov    edx,DWORD PTR [ebp-0x54]
    31bc:	89 45 e0             	mov    DWORD PTR [ebp-0x20],eax
		for (size_t i = 0; i < 2048; i += 2047) { /* 0, 2047 */
    31bf:	81 45 d8 ff 07 00 00 	add    DWORD PTR [ebp-0x28],0x7ff
    31c6:	81 7d d8 ff 07 00 00 	cmp    DWORD PTR [ebp-0x28],0x7ff
    31cd:	0f 86 a1 fe ff ff    	jbe    3074 <mm_pg36_init+0x170>
		}

		/* and set the entries */
		for (size_t i = 0; i < 256; i++) {
    31d3:	c7 45 d4 00 00 00 00 	mov    DWORD PTR [ebp-0x2c],0x0
    31da:	e9 b0 00 00 00       	jmp    328f <mm_pg36_init+0x38b>
				/* identity CD */
				pt1[i].p = 1;
    31df:	8b 45 d4             	mov    eax,DWORD PTR [ebp-0x2c]
    31e2:	8d 14 c5 00 00 00 00 	lea    edx,[eax*8+0x0]
